   1               		.file	"BootloaderDFU.c"
   2               	__SREG__ = 0x3f
   3               	__SP_H__ = 0x3e
   4               	__SP_L__ = 0x3d
   5               	__CCP__  = 0x34
   6               	__tmp_reg__ = 0
   7               	__zero_reg__ = 1
  15               	.Ltext0:
  16               		.section	.text.DiscardFillerBytes,"ax",@progbits
  18               	DiscardFillerBytes:
  19               	.LFB102:
  20               	.LSM0:
  21               	.LVL0:
  22               	/* prologue: function */
  23               	/* frame size = 0 */
  24 0000 282F      		mov r18,r24
  25 0002 00C0      		rjmp .L2
  26               	.LVL1:
  27               	.L8:
  28               	.LBB200:
  29               	.LBB201:
  30               	.LSM1:
  31 0004 8091 F200 		lds r24,242
  32 0008 9091 F300 		lds r25,(242)+1
  33               	.LVL2:
  34               	.LBE201:
  35               	.LBE200:
  36               	.LSM2:
  37 000c 892B      		or r24,r25
  38 000e 01F4      		brne .L3
  39               	.LBB202:
  40               	.LBB203:
  41               	.LSM3:
  42 0010 8091 E800 		lds r24,232
  43 0014 8B7F      		andi r24,lo8(-5)
  44 0016 8093 E800 		sts 232,r24
  45 001a 00C0      		rjmp .L4
  46               	.L6:
  47               	.LBE203:
  48               	.LBE202:
  49               	.LSM4:
  50 001c 8EB3      		in r24,62-32
  51 001e 8823      		tst r24
  52 0020 01F0      		breq .L9
  53               	.L4:
  54               	.LBB204:
  55               	.LBB205:
  56               	.LSM5:
  57 0022 8091 E800 		lds r24,232
  58               	.LBE205:
  59               	.LBE204:
  60               	.LSM6:
  61 0026 82FF      		sbrs r24,2
  62 0028 00C0      		rjmp .L6
  63 002a 00C0      		rjmp .L7
  64               	.L3:
  65               	.LBB206:
  66               	.LBB207:
  67               	.LSM7:
  68 002c 8091 F100 		lds r24,241
  69               	.LVL3:
  70               	.L7:
  71 0030 2150      		subi r18,lo8(-(-1))
  72               	.LVL4:
  73               	.L2:
  74               	.LBE207:
  75               	.LBE206:
  76               	.LSM8:
  77 0032 2223      		tst r18
  78 0034 01F4      		brne .L8
  79               	.L9:
  80 0036 0895      		ret
  81               	.LFE102:
  83               		.section	.text.LoadStartEndAddresses,"ax",@progbits
  85               	LoadStartEndAddresses:
  86               	.LFB104:
  87               	.LSM9:
  88               	/* prologue: function */
  89               	/* frame size = 0 */
  90               	.LSM10:
  91 0000 2091 0000 		lds r18,SentCommand+5
  92 0004 3091 0000 		lds r19,SentCommand+4
  93               	.LSM11:
  94 0008 8091 0000 		lds r24,SentCommand+3
  95               	.LVL5:
  96 000c 9091 0000 		lds r25,SentCommand+2
  97               	.LVL6:
  98 0010 8093 0000 		sts StartAddr,r24
  99 0014 9093 0000 		sts StartAddr+1,r25
 100               	.LSM12:
 101 0018 C901      		movw r24,r18
 102               	.LVL7:
 103 001a 8093 0000 		sts EndAddr,r24
 104               	.LVL8:
 105 001e 9093 0000 		sts EndAddr+1,r25
 106               	.LVL9:
 107               	/* epilogue start */
 108               	.LSM13:
 109 0022 0895      		ret
 110               	.LFE104:
 112               		.section	.text.ProcessBootloaderCommand,"ax",@progbits
 114               	ProcessBootloaderCommand:
 115               	.LFB103:
 116               	.LSM14:
 117 0000 1F93      		push r17
 118               	/* prologue: function */
 119               	/* frame size = 0 */
 120               	.LSM15:
 121 0002 8091 0000 		lds r24,IsSecure
 122 0006 8823      		tst r24
 123 0008 01F0      		breq .L13
 124               	.LSM16:
 125 000a 8091 0000 		lds r24,SentCommand
 126 000e 8430      		cpi r24,lo8(4)
 127 0010 01F4      		brne .L14
 128 0012 8091 0000 		lds r24,SentCommand+1
 129 0016 8823      		tst r24
 130 0018 01F4      		brne .L15
 131 001a 8091 0000 		lds r24,SentCommand+2
 132 001e 8F3F      		cpi r24,lo8(-1)
 133 0020 01F4      		brne .L15
 134 0022 00C0      		rjmp .L13
 135               	.L14:
 136 0024 8530      		cpi r24,lo8(5)
 137 0026 01F0      		breq .L13
 138               	.L15:
 139               	.LSM17:
 140 0028 8AE0      		ldi r24,lo8(10)
 141 002a 8093 0000 		sts DFU_State,r24
 142               	.LSM18:
 143 002e 83E0      		ldi r24,lo8(3)
 144 0030 8093 0000 		sts DFU_Status,r24
 145               	.LBB223:
 146               	.LBB224:
 147               	.LSM19:
 148 0034 8091 EB00 		lds r24,235
 149 0038 8062      		ori r24,lo8(32)
 150 003a 8093 EB00 		sts 235,r24
 151 003e 00C0      		rjmp .L36
 152               	.L13:
 153               	.LBE224:
 154               	.LBE223:
 155               	.LSM20:
 156 0040 8091 0000 		lds r24,SentCommand
 157 0044 8430      		cpi r24,lo8(4)
 158 0046 01F4      		brne .+2
 159 0048 00C0      		rjmp .L19
 160 004a 8530      		cpi r24,lo8(5)
 161 004c 00F4      		brsh .L22
 162 004e 8130      		cpi r24,lo8(1)
 163 0050 01F0      		breq .L17
 164 0052 8330      		cpi r24,lo8(3)
 165 0054 01F0      		breq .+2
 166 0056 00C0      		rjmp .L36
 167 0058 00C0      		rjmp .L44
 168               	.L22:
 169 005a 8530      		cpi r24,lo8(5)
 170 005c 01F4      		brne .+2
 171 005e 00C0      		rjmp .L20
 172 0060 8630      		cpi r24,lo8(6)
 173 0062 01F0      		breq .+2
 174 0064 00C0      		rjmp .L36
 175 0066 00C0      		rjmp .L45
 176               	.L17:
 177               	.LBB225:
 178               	.LBB226:
 179               	.LSM21:
 180 0068 1091 0000 		lds r17,SentCommand+1
 181 006c 1230      		cpi r17,lo8(2)
 182 006e 00F0      		brlo .+2
 183 0070 00C0      		rjmp .L36
 184               	.LSM22:
 185 0072 0E94 0000 		call LoadStartEndAddresses
 186               	.LSM23:
 187 0076 1123      		tst r17
 188 0078 01F4      		brne .L23
 189               	.LBB227:
 190               	.LSM24:
 191 007a 8091 0000 		lds r24,StartAddr
 192 007e 9091 0000 		lds r25,(StartAddr)+1
 193               	.LVL10:
 194 0082 A091 0000 		lds r26,Flash64KBPage
 195               	.LVL11:
 196 0086 B0E0      		ldi r27,lo8(0)
 197               	.LVL12:
 198               	.LSM25:
 199 0088 23E0      		ldi r18,lo8(3)
 200               	/* #APP */
 201               	 ;  694 "BootloaderDFU.c" 1
 202 008a FC01      		movw r30, r24
 203 008c A093 5B00 		sts  91, r26
 204 0090 2093 5700 		sts 87, r18
 205 0094 E895      		spm
 206               		
 207               	 ;  0 "" 2
 208               	/* #NOAPP */
 209               	.L24:
 210               	.LBE227:
 211               	.LBE226:
 212               	.LSM26:
 213 0096 07B6      		in __tmp_reg__,87-32
 214 0098 00FC      		sbrc __tmp_reg__,0
 215 009a 00C0      		rjmp .L24
 216               	.L23:
 217               	.LBB228:
 218               	.LSM27:
 219 009c 85E0      		ldi r24,lo8(5)
 220               	.LVL13:
 221 009e 00C0      		rjmp .L42
 222               	.LVL14:
 223               	.L44:
 224               	.LBE228:
 225               	.LBE225:
 226               	.LBB229:
 227               	.LBB230:
 228               	.LSM28:
 229 00a0 8091 0000 		lds r24,SentCommand+1
 230 00a4 8823      		tst r24
 231 00a6 01F0      		breq .L25
 232 00a8 8230      		cpi r24,lo8(2)
 233 00aa 01F4      		brne .L26
 234               	.L25:
 235               	.LSM29:
 236 00ac 0E94 0000 		call LoadStartEndAddresses
 237               	.LSM30:
 238 00b0 89E0      		ldi r24,lo8(9)
 239               	.LVL15:
 240               	.L42:
 241 00b2 8093 0000 		sts DFU_State,r24
 242 00b6 00C0      		rjmp .L36
 243               	.LVL16:
 244               	.L26:
 245               	.LSM31:
 246 00b8 8130      		cpi r24,lo8(1)
 247 00ba 01F0      		breq .+2
 248 00bc 00C0      		rjmp .L36
 249 00be 20E0      		ldi r18,lo8(0)
 250 00c0 30E0      		ldi r19,hi8(0)
 251 00c2 40E0      		ldi r20,hlo8(0)
 252 00c4 50E0      		ldi r21,hhi8(0)
 253               	.LVL17:
 254               	.L28:
 255               	.LBB231:
 256               	.LBB232:
 257               	.LSM32:
 258               	/* #APP */
 259               	 ;  726 "BootloaderDFU.c" 1
 260 00c6 4BBF      		out 59, r20
 261 00c8 F901      		movw r30, r18
 262 00ca 8791      		elpm r24, Z+
 263               		
 264               	 ;  0 "" 2
 265               	.LVL18:
 266               	/* #NOAPP */
 267               	.LBE232:
 268 00cc 8F3F      		cpi r24,lo8(-1)
 269 00ce 01F0      		breq .L27
 270               	.LSM33:
 271 00d0 CA01      		movw r24,r20
 272 00d2 AA27      		clr r26
 273 00d4 BB27      		clr r27
 274               	.LVL19:
 275 00d6 8093 0000 		sts Flash64KBPage,r24
 276               	.LSM34:
 277 00da 3093 0000 		sts (StartAddr)+1,r19
 278 00de 2093 0000 		sts StartAddr,r18
 279               	.LSM35:
 280 00e2 8AE0      		ldi r24,lo8(10)
 281 00e4 8093 0000 		sts DFU_State,r24
 282               	.LSM36:
 283 00e8 85E0      		ldi r24,lo8(5)
 284 00ea 8093 0000 		sts DFU_Status,r24
 285 00ee 00C0      		rjmp .L36
 286               	.LVL20:
 287               	.L27:
 288               	.LSM37:
 289 00f0 2F5F      		subi r18,lo8(-(1))
 290 00f2 3F4F      		sbci r19,hi8(-(1))
 291 00f4 4F4F      		sbci r20,hlo8(-(1))
 292 00f6 5F4F      		sbci r21,hhi8(-(1))
 293               	.LSM38:
 294 00f8 2030      		cpi r18,lo8(126976)
 295 00fa 80EF      		ldi r24,hi8(126976)
 296 00fc 3807      		cpc r19,r24
 297 00fe 81E0      		ldi r24,hlo8(126976)
 298 0100 4807      		cpc r20,r24
 299 0102 80E0      		ldi r24,hhi8(126976)
 300 0104 5807      		cpc r21,r24
 301               	.LVL21:
 302 0106 01F4      		brne .L28
 303 0108 00C0      		rjmp .L36
 304               	.LVL22:
 305               	.L19:
 306               	.LBE231:
 307               	.LBE230:
 308               	.LBE229:
 309               	.LBB233:
 310               	.LBB234:
 311               	.LSM39:
 312 010a 8091 0000 		lds r24,SentCommand+1
 313 010e 8330      		cpi r24,lo8(3)
 314 0110 01F4      		brne .L29
 315               	.LSM40:
 316 0112 81E0      		ldi r24,lo8(1)
 317 0114 8093 0000 		sts WaitForExit,r24
 318               	.LSM41:
 319 0118 8091 0000 		lds r24,SentCommand+6
 320 011c 9091 0000 		lds r25,(SentCommand+6)+1
 321 0120 892B      		or r24,r25
 322 0122 01F0      		breq .L30
 323               	.LSM42:
 324 0124 8091 0000 		lds r24,SentCommand+2
 325 0128 8130      		cpi r24,lo8(1)
 326 012a 01F0      		breq .+2
 327 012c 00C0      		rjmp .L36
 328               	.LBB236:
 329               	.LSM43:
 330 012e 8091 0000 		lds r24,SentCommand+5
 331               	.LVL23:
 332 0132 9091 0000 		lds r25,SentCommand+4
 333               	.LVL24:
 334               	.LSM44:
 335 0136 9093 0000 		sts (AppStartPtr)+1,r25
 336 013a 8093 0000 		sts AppStartPtr,r24
 337 013e 00C0      		rjmp .L36
 338               	.LVL25:
 339               	.L30:
 340               	.LBE236:
 341               	.LSM45:
 342 0140 8091 0000 		lds r24,SentCommand+2
 343 0144 8823      		tst r24
 344 0146 01F4      		brne .L31
 345               	.LSM46:
 346 0148 2CE0      		ldi r18,lo8(12)
 347 014a 88E1      		ldi r24,lo8(24)
 348 014c 90E0      		ldi r25,hi8(24)
 349               	/* #APP */
 350               	 ;  777 "BootloaderDFU.c" 1
 351 014e 0FB6      		in __tmp_reg__,__SREG__
 352 0150 F894      		cli
 353 0152 A895      		wdr
 354 0154 8093 6000 		sts 96,r24
 355 0158 0FBE      		out __SREG__,__tmp_reg__
 356 015a 2093 6000 		sts 96,r18
 357               		
 358               	 ;  0 "" 2
 359               	/* #NOAPP */
 360 015e 00C0      		rjmp .L36
 361               	.L31:
 362               	.LSM47:
 363 0160 1092 0000 		sts RunBootloader,__zero_reg__
 364 0164 00C0      		rjmp .L36
 365               	.L29:
 366               	.LSM48:
 367 0166 8823      		tst r24
 368 0168 01F0      		breq .+2
 369 016a 00C0      		rjmp .L36
 370 016c 8091 0000 		lds r24,SentCommand+2
 371 0170 8F3F      		cpi r24,lo8(-1)
 372 0172 01F0      		breq .+2
 373 0174 00C0      		rjmp .L36
 374 0176 80E0      		ldi r24,lo8(0)
 375 0178 90E0      		ldi r25,hi8(0)
 376 017a A0E0      		ldi r26,hlo8(0)
 377 017c B0E0      		ldi r27,hhi8(0)
 378               	.LVL26:
 379               	.LBB237:
 380               	.LSM49:
 381 017e 33E0      		ldi r19,lo8(3)
 382               	.LSM50:
 383 0180 25E0      		ldi r18,lo8(5)
 384               	.L34:
 385               	.LSM51:
 386               	/* #APP */
 387               	 ;  793 "BootloaderDFU.c" 1
 388 0182 FC01      		movw r30, r24
 389 0184 A093 5B00 		sts  91, r26
 390 0188 3093 5700 		sts 87, r19
 391 018c E895      		spm
 392               		
 393               	 ;  0 "" 2
 394               	/* #NOAPP */
 395               	.L32:
 396               	.LBE237:
 397               	.LBE234:
 398               	.LSM52:
 399 018e 07B6      		in __tmp_reg__,87-32
 400 0190 00FC      		sbrc __tmp_reg__,0
 401 0192 00C0      		rjmp .L32
 402               	.LBB239:
 403               	.LBB235:
 404               	.LSM53:
 405               	/* #APP */
 406               	 ;  795 "BootloaderDFU.c" 1
 407 0194 FC01      		movw r30, r24
 408 0196 A093 5B00 		sts 91, r26
 409 019a 2093 5700 		sts 87, r18
 410 019e E895      		spm
 411               		
 412               	 ;  0 "" 2
 413               	/* #NOAPP */
 414               	.L33:
 415               	.LBE235:
 416               	.LBE239:
 417               	.LSM54:
 418 01a0 07B6      		in __tmp_reg__,87-32
 419 01a2 00FC      		sbrc __tmp_reg__,0
 420 01a4 00C0      		rjmp .L33
 421               	.LBB240:
 422               	.LBB238:
 423               	.LSM55:
 424 01a6 8050      		subi r24,lo8(-(256))
 425 01a8 9F4F      		sbci r25,hi8(-(256))
 426 01aa AF4F      		sbci r26,hlo8(-(256))
 427 01ac BF4F      		sbci r27,hhi8(-(256))
 428               	.LSM56:
 429 01ae 8030      		cpi r24,lo8(126976)
 430 01b0 40EF      		ldi r20,hi8(126976)
 431 01b2 9407      		cpc r25,r20
 432 01b4 41E0      		ldi r20,hlo8(126976)
 433 01b6 A407      		cpc r26,r20
 434 01b8 40E0      		ldi r20,hhi8(126976)
 435 01ba B407      		cpc r27,r20
 436 01bc 01F4      		brne .L34
 437               	.LSM57:
 438 01be 81E1      		ldi r24,lo8(17)
 439               	.LVL27:
 440               	/* #APP */
 441               	 ;  802 "BootloaderDFU.c" 1
 442 01c0 8093 5700 		sts 87, r24
 443 01c4 E895      		spm
 444               		
 445               	 ;  0 "" 2
 446               	.LSM58:
 447               	/* #NOAPP */
 448 01c6 1092 0000 		sts IsSecure,__zero_reg__
 449 01ca 00C0      		rjmp .L36
 450               	.L20:
 451               	.LBE238:
 452               	.LBE240:
 453               	.LBE233:
 454               	.LBB241:
 455               	.LBB242:
 456               	.LSM59:
 457 01cc E091 0000 		lds r30,SentCommand+2
 458               	.LVL28:
 459               	.LSM60:
 460 01d0 8091 0000 		lds r24,SentCommand+1
 461 01d4 8823      		tst r24
 462 01d6 01F4      		brne .L35
 463               	.LSM61:
 464 01d8 F0E0      		ldi r31,lo8(0)
 465               	.LVL29:
 466 01da E050      		subi r30,lo8(-(BootloaderInfo.4411))
 467 01dc F040      		sbci r31,hi8(-(BootloaderInfo.4411))
 468               	.LVL30:
 469 01de 00C0      		rjmp .L43
 470               	.LVL31:
 471               	.L35:
 472               	.LSM62:
 473 01e0 8130      		cpi r24,lo8(1)
 474 01e2 01F4      		brne .L36
 475               	.LSM63:
 476 01e4 F0E0      		ldi r31,lo8(0)
 477               	.LVL32:
 478 01e6 E050      		subi r30,lo8(-(SignatureInfo.4412-48))
 479 01e8 F040      		sbci r31,hi8(-(SignatureInfo.4412-48))
 480               	.LVL33:
 481               	.L43:
 482 01ea 8081      		ld r24,Z
 483 01ec 8093 0000 		sts ResponseByte,r24
 484 01f0 00C0      		rjmp .L36
 485               	.LVL34:
 486               	.L45:
 487               	.LBE242:
 488               	.LBE241:
 489               	.LSM64:
 490 01f2 8091 0000 		lds r24,SentCommand+1
 491 01f6 8330      		cpi r24,lo8(3)
 492 01f8 01F4      		brne .L36
 493 01fa 8091 0000 		lds r24,SentCommand+2
 494 01fe 8823      		tst r24
 495 0200 01F4      		brne .L36
 496               	.LSM65:
 497 0202 8091 0000 		lds r24,SentCommand+3
 498 0206 8093 0000 		sts Flash64KBPage,r24
 499               	.LVL35:
 500               	.L36:
 501               	/* epilogue start */
 502               	.LSM66:
 503 020a 1F91      		pop r17
 504 020c 0895      		ret
 505               	.LFE103:
 507               		.section	.text.EVENT_USB_Device_ControlRequest,"ax",@progbits
 508               	.global	EVENT_USB_Device_ControlRequest
 510               	EVENT_USB_Device_ControlRequest:
 511               	.LFB101:
 512               	.LSM67:
 513 0000 8F92      		push r8
 514 0002 9F92      		push r9
 515 0004 AF92      		push r10
 516 0006 BF92      		push r11
 517 0008 CF92      		push r12
 518 000a DF92      		push r13
 519 000c EF92      		push r14
 520 000e FF92      		push r15
 521 0010 0F93      		push r16
 522 0012 1F93      		push r17
 523 0014 CF93      		push r28
 524 0016 DF93      		push r29
 525               	/* prologue: function */
 526               	/* frame size = 0 */
 527               	.LSM68:
 528 0018 8091 0000 		lds r24,USB_ControlRequest
 529 001c 8F77      		andi r24,lo8(127)
 530 001e 8132      		cpi r24,lo8(33)
 531 0020 01F0      		breq .+2
 532 0022 00C0      		rjmp .L95
 533               	.LSM69:
 534 0024 C091 0000 		lds r28,USB_ControlRequest+6
 535 0028 D091 0000 		lds r29,(USB_ControlRequest+6)+1
 536 002c D093 0000 		sts (SentCommand+6)+1,r29
 537 0030 C093 0000 		sts SentCommand+6,r28
 538               	.LSM70:
 539 0034 8091 0000 		lds r24,USB_ControlRequest+1
 540 0038 8330      		cpi r24,lo8(3)
 541 003a 01F4      		brne .+2
 542 003c 00C0      		rjmp .L50
 543 003e 8430      		cpi r24,lo8(4)
 544 0040 00F4      		brsh .L54
 545 0042 8130      		cpi r24,lo8(1)
 546 0044 01F0      		breq .L48
 547 0046 8230      		cpi r24,lo8(2)
 548 0048 01F0      		breq .+2
 549 004a 00C0      		rjmp .L95
 550 004c 00C0      		rjmp .L109
 551               	.L54:
 552 004e 8530      		cpi r24,lo8(5)
 553 0050 01F4      		brne .+2
 554 0052 00C0      		rjmp .L52
 555 0054 8530      		cpi r24,lo8(5)
 556 0056 00F4      		brsh .+2
 557 0058 00C0      		rjmp .L51
 558 005a 8630      		cpi r24,lo8(6)
 559 005c 01F0      		breq .+2
 560 005e 00C0      		rjmp .L95
 561 0060 00C0      		rjmp .L110
 562               	.L48:
 563               	.LBB243:
 564               	.LBB244:
 565               	.LSM71:
 566 0062 8091 E800 		lds r24,232
 567 0066 877F      		andi r24,lo8(-9)
 568 0068 8093 E800 		sts 232,r24
 569               	.LBE244:
 570               	.LBE243:
 571               	.LSM72:
 572 006c 8091 0000 		lds r24,WaitForExit
 573 0070 8823      		tst r24
 574 0072 01F0      		breq .L55
 575               	.LSM73:
 576 0074 0E94 0000 		call ProcessBootloaderCommand
 577               	.LSM74:
 578 0078 1092 0000 		sts WaitForExit,__zero_reg__
 579               	.L55:
 580               	.LSM75:
 581 007c 2097      		sbiw r28,0
 582 007e 01F4      		brne .L100
 583 0080 00C0      		rjmp .L57
 584               	.L58:
 585               	.LSM76:
 586 0082 8EB3      		in r24,62-32
 587 0084 8823      		tst r24
 588 0086 01F4      		brne .+2
 589 0088 00C0      		rjmp .L95
 590               	.L100:
 591               	.LBB245:
 592               	.LBB246:
 593               	.LSM77:
 594 008a 8091 E800 		lds r24,232
 595               	.LBE246:
 596               	.LBE245:
 597               	.LSM78:
 598 008e 82FF      		sbrs r24,2
 599 0090 00C0      		rjmp .L58
 600               	.LBB247:
 601               	.LBB248:
 602               	.LSM79:
 603 0092 8091 F100 		lds r24,241
 604               	.LBE248:
 605               	.LBE247:
 606               	.LSM80:
 607 0096 8093 0000 		sts SentCommand,r24
 608               	.LSM81:
 609 009a 9E01      		movw r18,r28
 610 009c 2150      		subi r18,lo8(-(-1))
 611 009e 3040      		sbci r19,hi8(-(-1))
 612 00a0 3093 0000 		sts (SentCommand+6)+1,r19
 613 00a4 2093 0000 		sts SentCommand+6,r18
 614 00a8 E0E0      		ldi r30,lo8(SentCommand+1)
 615 00aa F0E0      		ldi r31,hi8(SentCommand+1)
 616 00ac 00C0      		rjmp .L59
 617               	.L61:
 618               	.LBB249:
 619               	.LBB250:
 620               	.LBB251:
 621               	.LSM82:
 622 00ae 8091 F100 		lds r24,241
 623               	.LBE251:
 624               	.LBE250:
 625               	.LSM83:
 626 00b2 8193      		st Z+,r24
 627 00b4 2150      		subi r18,lo8(-(-1))
 628 00b6 3040      		sbci r19,hi8(-(-1))
 629               	.LSM84:
 630 00b8 80E0      		ldi r24,hi8(SentCommand+6)
 631 00ba E030      		cpi r30,lo8(SentCommand+6)
 632 00bc F807      		cpc r31,r24
 633 00be 01F4      		brne .L59
 634 00c0 3183      		std Z+1,r19
 635 00c2 2083      		st Z,r18
 636 00c4 00C0      		rjmp .L60
 637               	.L59:
 638               	.LBB252:
 639               	.LBB253:
 640               	.LSM85:
 641 00c6 8091 F200 		lds r24,242
 642 00ca 9091 F300 		lds r25,(242)+1
 643               	.LBE253:
 644               	.LBE252:
 645               	.LSM86:
 646 00ce 892B      		or r24,r25
 647 00d0 01F4      		brne .L61
 648 00d2 3093 0000 		sts (SentCommand+6)+1,r19
 649 00d6 2093 0000 		sts SentCommand+6,r18
 650               	.L60:
 651               	.LBE249:
 652               	.LSM87:
 653 00da 0E94 0000 		call ProcessBootloaderCommand
 654               	.L57:
 655               	.LSM88:
 656 00de 8091 0000 		lds r24,DFU_State
 657 00e2 8530      		cpi r24,lo8(5)
 658 00e4 01F0      		breq .+2
 659 00e6 00C0      		rjmp .L62
 660               	.LSM89:
 661 00e8 8091 0000 		lds r24,SentCommand+6
 662 00ec 9091 0000 		lds r25,(SentCommand+6)+1
 663 00f0 892B      		or r24,r25
 664 00f2 01F4      		brne .L63
 665               	.LSM90:
 666 00f4 82E0      		ldi r24,lo8(2)
 667 00f6 8093 0000 		sts DFU_State,r24
 668 00fa 00C0      		rjmp .L62
 669               	.L63:
 670               	.LBB254:
 671               	.LSM91:
 672 00fc 8AE1      		ldi r24,lo8(26)
 673 00fe 0E94 0000 		call DiscardFillerBytes
 674               	.LSM92:
 675 0102 C091 0000 		lds r28,StartAddr
 676 0106 D091 0000 		lds r29,(StartAddr)+1
 677 010a 9E01      		movw r18,r28
 678 010c 2F71      		andi r18,lo8(31)
 679 010e 822F      		mov r24,r18
 680 0110 0E94 0000 		call DiscardFillerBytes
 681               	.LSM93:
 682 0114 A090 0000 		lds r10,EndAddr
 683 0118 B090 0000 		lds r11,(EndAddr)+1
 684 011c 0894      		sec
 685 011e A11C      		adc r10,__zero_reg__
 686 0120 B11C      		adc r11,__zero_reg__
 687 0122 8501      		movw r16,r10
 688               	.LVL36:
 689 0124 0C1B      		sub r16,r28
 690 0126 1D0B      		sbc r17,r29
 691 0128 0894      		sec
 692 012a A108      		sbc r10,__zero_reg__
 693 012c B108      		sbc r11,__zero_reg__
 694               	.LSM94:
 695 012e 8091 0000 		lds r24,SentCommand+1
 696 0132 8823      		tst r24
 697 0134 01F0      		breq .+2
 698 0136 00C0      		rjmp .L101
 699               	.LBB255:
 700               	.LSM95:
 701 0138 6801      		movw r12,r16
 702               	.LVL37:
 703 013a D694      		lsr r13
 704 013c C794      		ror r12
 705               	.LSM96:
 706 013e CE01      		movw r24,r28
 707               	.LVL38:
 708 0140 A091 0000 		lds r26,Flash64KBPage
 709               	.LVL39:
 710 0144 B0E0      		ldi r27,lo8(0)
 711               	.LVL40:
 712               	.LSM97:
 713 0146 7C01      		movw r14,r24
 714 0148 8D01      		movw r16,r26
 715               	.LVL41:
 716 014a A801      		movw r20,r16
 717 014c 9701      		movw r18,r14
 718 014e A0E0      		ldi r26,lo8(0)
 719               	.LVL42:
 720               	.LSM98:
 721 0150 8824      		clr r8
 722 0152 8394      		inc r8
 723               	.LSM99:
 724 0154 65E0      		ldi r22,lo8(5)
 725 0156 962E      		mov r9,r22
 726               	.LSM100:
 727 0158 B3E0      		ldi r27,lo8(3)
 728               	.LVL43:
 729 015a 00C0      		rjmp .L104
 730               	.LVL44:
 731               	.L72:
 732               	.LBB256:
 733               	.LBB257:
 734               	.LSM101:
 735 015c 8091 F200 		lds r24,242
 736 0160 9091 F300 		lds r25,(242)+1
 737               	.LVL45:
 738               	.LBE257:
 739               	.LBE256:
 740               	.LSM102:
 741 0164 892B      		or r24,r25
 742 0166 01F4      		brne .L66
 743               	.LBB258:
 744               	.LBB259:
 745               	.LSM103:
 746 0168 8091 E800 		lds r24,232
 747 016c 8B7F      		andi r24,lo8(-5)
 748 016e 8093 E800 		sts 232,r24
 749 0172 00C0      		rjmp .L67
 750               	.L68:
 751               	.LBE259:
 752               	.LBE258:
 753               	.LSM104:
 754 0174 8EB3      		in r24,62-32
 755 0176 8823      		tst r24
 756 0178 01F4      		brne .+2
 757 017a 00C0      		rjmp .L95
 758               	.L67:
 759               	.LBB260:
 760               	.LBB261:
 761               	.LSM105:
 762 017c 8091 E800 		lds r24,232
 763               	.LBE261:
 764               	.LBE260:
 765               	.LSM106:
 766 0180 82FF      		sbrs r24,2
 767 0182 00C0      		rjmp .L68
 768               	.L66:
 769               	.LSM107:
 770 0184 0894      		sec
 771 0186 C108      		sbc r12,__zero_reg__
 772 0188 D108      		sbc r13,__zero_reg__
 773               	.LBB262:
 774               	.LBB263:
 775               	.LSM108:
 776 018a 8091 F100 		lds r24,241
 777 018e 682F      		mov r22,r24
 778               	.LSM109:
 779 0190 8091 F100 		lds r24,241
 780 0194 782F      		mov r23,r24
 781               	.LBE263:
 782               	.LBE262:
 783               	.LSM110:
 784               	/* #APP */
 785               	 ;  366 "BootloaderDFU.c" 1
 786 0196 0B01      		movw  r0, r22
 787 0198 F901      		movw r30, r18
 788 019a 4093 5B00 		sts 91, r20
 789 019e 8092 5700 		sts 87, r8
 790 01a2 E895      		spm
 791 01a4 1124      		clr  r1
 792               		
 793               	 ;  0 "" 2
 794               	.LSM111:
 795               	/* #NOAPP */
 796 01a6 AF5F      		subi r26,lo8(-(1))
 797 01a8 2E5F      		subi r18,lo8(-(2))
 798 01aa 3F4F      		sbci r19,hi8(-(2))
 799 01ac 4F4F      		sbci r20,hlo8(-(2))
 800 01ae 5F4F      		sbci r21,hhi8(-(2))
 801               	.LSM112:
 802 01b0 A038      		cpi r26,lo8(-128)
 803 01b2 01F0      		breq .L69
 804 01b4 C114      		cp r12,__zero_reg__
 805 01b6 D104      		cpc r13,__zero_reg__
 806 01b8 01F4      		brne .L104
 807               	.L69:
 808               	.LSM113:
 809               	/* #APP */
 810               	 ;  376 "BootloaderDFU.c" 1
 811 01ba F701      		movw r30, r14
 812 01bc 0093 5B00 		sts 91, r16
 813 01c0 9092 5700 		sts 87, r9
 814 01c4 E895      		spm
 815               		
 816               	 ;  0 "" 2
 817               	.LVL46:
 818               	/* #NOAPP */
 819               	.L70:
 820               	.LSM114:
 821 01c6 07B6      		in __tmp_reg__,87-32
 822 01c8 00FC      		sbrc __tmp_reg__,0
 823 01ca 00C0      		rjmp .L70
 824               	.LSM115:
 825 01cc C114      		cp r12,__zero_reg__
 826 01ce D104      		cpc r13,__zero_reg__
 827 01d0 01F0      		breq .L104
 828               	.LSM116:
 829               	/* #APP */
 830               	 ;  386 "BootloaderDFU.c" 1
 831 01d2 F901      		movw r30, r18
 832 01d4 4093 5B00 		sts  91, r20
 833 01d8 B093 5700 		sts 87, r27
 834 01dc E895      		spm
 835               		
 836               	 ;  0 "" 2
 837               	.LVL47:
 838               	/* #NOAPP */
 839               	.L71:
 840               	.LSM117:
 841 01de 07B6      		in __tmp_reg__,87-32
 842 01e0 00FC      		sbrc __tmp_reg__,0
 843 01e2 00C0      		rjmp .L71
 844 01e4 7901      		movw r14,r18
 845 01e6 8A01      		movw r16,r20
 846 01e8 A0E0      		ldi r26,lo8(0)
 847               	.LVL48:
 848               	.L104:
 849               	.LSM118:
 850 01ea C114      		cp r12,__zero_reg__
 851 01ec D104      		cpc r13,__zero_reg__
 852 01ee 01F0      		breq .+2
 853 01f0 00C0      		rjmp .L72
 854               	.LSM119:
 855 01f2 B092 0000 		sts (StartAddr)+1,r11
 856 01f6 A092 0000 		sts StartAddr,r10
 857               	.LSM120:
 858 01fa 81E1      		ldi r24,lo8(17)
 859               	.LVL49:
 860               	/* #APP */
 861               	 ;  396 "BootloaderDFU.c" 1
 862 01fc 8093 5700 		sts 87, r24
 863 0200 E895      		spm
 864               		
 865               	 ;  0 "" 2
 866               	/* #NOAPP */
 867 0202 00C0      		rjmp .L73
 868               	.LVL50:
 869               	.L77:
 870               	.LBE255:
 871               	.LBB264:
 872               	.LBB265:
 873               	.LSM121:
 874 0204 8091 F200 		lds r24,242
 875 0208 9091 F300 		lds r25,(242)+1
 876               	.LBE265:
 877               	.LBE264:
 878               	.LSM122:
 879 020c 892B      		or r24,r25
 880 020e 01F4      		brne .L74
 881               	.LBB266:
 882               	.LBB267:
 883               	.LSM123:
 884 0210 8091 E800 		lds r24,232
 885 0214 8B7F      		andi r24,lo8(-5)
 886 0216 8093 E800 		sts 232,r24
 887 021a 00C0      		rjmp .L75
 888               	.L76:
 889               	.LBE267:
 890               	.LBE266:
 891               	.LSM124:
 892 021c 8EB3      		in r24,62-32
 893 021e 8823      		tst r24
 894 0220 01F4      		brne .+2
 895 0222 00C0      		rjmp .L95
 896               	.L75:
 897               	.LBB268:
 898               	.LBB269:
 899               	.LSM125:
 900 0224 8091 E800 		lds r24,232
 901               	.LBE269:
 902               	.LBE268:
 903               	.LSM126:
 904 0228 82FF      		sbrs r24,2
 905 022a 00C0      		rjmp .L76
 906               	.L74:
 907               	.LBB270:
 908               	.LBB271:
 909               	.LSM127:
 910 022c 6091 F100 		lds r22,241
 911               	.LBE271:
 912               	.LBE270:
 913               	.LSM128:
 914 0230 8091 0000 		lds r24,StartAddr
 915 0234 9091 0000 		lds r25,(StartAddr)+1
 916 0238 0E94 0000 		call __eewr_byte_usb1287
 917               	.LSM129:
 918 023c 8091 0000 		lds r24,StartAddr
 919 0240 9091 0000 		lds r25,(StartAddr)+1
 920 0244 0196      		adiw r24,1
 921 0246 9093 0000 		sts (StartAddr)+1,r25
 922 024a 8093 0000 		sts StartAddr,r24
 923 024e 0150      		subi r16,lo8(-(-1))
 924 0250 1040      		sbci r17,hi8(-(-1))
 925               	.L101:
 926               	.LSM130:
 927 0252 0115      		cp r16,__zero_reg__
 928 0254 1105      		cpc r17,__zero_reg__
 929 0256 01F4      		brne .L77
 930               	.LVL51:
 931               	.L73:
 932               	.LSM131:
 933 0258 80E1      		ldi r24,lo8(16)
 934 025a 0E94 0000 		call DiscardFillerBytes
 935               	.LVL52:
 936               	.L62:
 937               	.LBE254:
 938               	.LBB272:
 939               	.LBB273:
 940               	.LSM132:
 941 025e 8091 E800 		lds r24,232
 942 0262 8B7F      		andi r24,lo8(-5)
 943 0264 00C0      		rjmp .L107
 944               	.LVL53:
 945               	.L109:
 946               	.LBE273:
 947               	.LBE272:
 948               	.LBB274:
 949               	.LBB275:
 950               	.LSM133:
 951 0266 8091 E800 		lds r24,232
 952 026a 877F      		andi r24,lo8(-9)
 953 026c 8093 E800 		sts 232,r24
 954 0270 00C0      		rjmp .L78
 955               	.L79:
 956               	.LBE275:
 957               	.LBE274:
 958               	.LSM134:
 959 0272 8EB3      		in r24,62-32
 960 0274 8823      		tst r24
 961 0276 01F4      		brne .+2
 962 0278 00C0      		rjmp .L95
 963               	.L78:
 964               	.LBB276:
 965               	.LBB277:
 966               	.LSM135:
 967 027a 8091 E800 		lds r24,232
 968               	.LBE277:
 969               	.LBE276:
 970               	.LSM136:
 971 027e 80FF      		sbrs r24,0
 972 0280 00C0      		rjmp .L79
 973               	.LSM137:
 974 0282 8091 0000 		lds r24,DFU_State
 975 0286 8930      		cpi r24,lo8(9)
 976 0288 01F0      		breq .L80
 977               	.LSM138:
 978 028a 8A30      		cpi r24,lo8(10)
 979 028c 01F4      		brne .L81
 980 028e 8091 0000 		lds r24,SentCommand+1
 981 0292 8130      		cpi r24,lo8(1)
 982 0294 01F4      		brne .L81
 983               	.LSM139:
 984 0296 8091 0000 		lds r24,StartAddr
 985 029a 9091 0000 		lds r25,StartAddr+1
 986               	.LBB278:
 987               	.LBB279:
 988               	.LSM140:
 989 029e 8093 F100 		sts 241,r24
 990               	.LSM141:
 991 02a2 9093 F100 		sts 241,r25
 992 02a6 00C0      		rjmp .L106
 993               	.L81:
 994               	.LBE279:
 995               	.LBE278:
 996               	.LSM142:
 997 02a8 8091 0000 		lds r24,ResponseByte
 998 02ac 00C0      		rjmp .L108
 999               	.L80:
 1000               	.LBB280:
 1001               	.LSM143:
 1002 02ae 6091 0000 		lds r22,EndAddr
 1003 02b2 7091 0000 		lds r23,(EndAddr)+1
 1004 02b6 2091 0000 		lds r18,StartAddr
 1005 02ba 3091 0000 		lds r19,(StartAddr)+1
 1006 02be 6F5F      		subi r22,lo8(-(1))
 1007 02c0 7F4F      		sbci r23,hi8(-(1))
 1008 02c2 EB01      		movw r28,r22
 1009               	.LVL54:
 1010 02c4 C21B      		sub r28,r18
 1011 02c6 D30B      		sbc r29,r19
 1012 02c8 6150      		subi r22,lo8(-(-1))
 1013 02ca 7040      		sbci r23,hi8(-(-1))
 1014               	.LSM144:
 1015 02cc 8091 0000 		lds r24,SentCommand+1
 1016 02d0 8823      		tst r24
 1017 02d2 01F4      		brne .L83
 1018               	.LBB281:
 1019               	.LSM145:
 1020 02d4 D695      		lsr r29
 1021 02d6 C795      		ror r28
 1022               	.LVL55:
 1023               	.LSM146:
 1024 02d8 C901      		movw r24,r18
 1025               	.LVL56:
 1026 02da A091 0000 		lds r26,Flash64KBPage
 1027               	.LVL57:
 1028 02de B0E0      		ldi r27,lo8(0)
 1029               	.LVL58:
 1030 02e0 9C01      		movw r18,r24
 1031 02e2 AD01      		movw r20,r26
 1032 02e4 00C0      		rjmp .L84
 1033               	.LVL59:
 1034               	.L88:
 1035               	.LBB282:
 1036               	.LBB283:
 1037               	.LSM147:
 1038 02e6 8091 F200 		lds r24,242
 1039 02ea 9091 F300 		lds r25,(242)+1
 1040               	.LVL60:
 1041               	.LBE283:
 1042               	.LBE282:
 1043               	.LSM148:
 1044 02ee 8097      		sbiw r24,32
 1045 02f0 01F4      		brne .L85
 1046               	.LBB284:
 1047               	.LBB285:
 1048               	.LSM149:
 1049 02f2 8091 E800 		lds r24,232
 1050 02f6 8E7F      		andi r24,lo8(-2)
 1051 02f8 8093 E800 		sts 232,r24
 1052 02fc 00C0      		rjmp .L86
 1053               	.L87:
 1054               	.LBE285:
 1055               	.LBE284:
 1056               	.LSM150:
 1057 02fe 8EB3      		in r24,62-32
 1058 0300 8823      		tst r24
 1059 0302 01F4      		brne .+2
 1060 0304 00C0      		rjmp .L95
 1061               	.L86:
 1062               	.LBB286:
 1063               	.LBB287:
 1064               	.LSM151:
 1065 0306 8091 E800 		lds r24,232
 1066               	.LBE287:
 1067               	.LBE286:
 1068               	.LSM152:
 1069 030a 80FF      		sbrs r24,0
 1070 030c 00C0      		rjmp .L87
 1071               	.L85:
 1072               	.LBB288:
 1073               	.LSM153:
 1074               	/* #APP */
 1075               	 ;  487 "BootloaderDFU.c" 1
 1076 030e 4BBF      		out 59, r20
 1077 0310 F901      		movw r30, r18
 1078 0312 8791      		elpm r24, Z+
 1079 0314 9691      		elpm r25, Z
 1080               		
 1081               	 ;  0 "" 2
 1082               	.LVL61:
 1083               	/* #NOAPP */
 1084               	.LBE288:
 1085               	.LBB289:
 1086               	.LBB290:
 1087               	.LSM154:
 1088 0316 8093 F100 		sts 241,r24
 1089               	.LSM155:
 1090 031a 9093 F100 		sts 241,r25
 1091 031e 2197      		sbiw r28,1
 1092 0320 2E5F      		subi r18,lo8(-(2))
 1093 0322 3F4F      		sbci r19,hi8(-(2))
 1094 0324 4F4F      		sbci r20,hlo8(-(2))
 1095 0326 5F4F      		sbci r21,hhi8(-(2))
 1096               	.LVL62:
 1097               	.L84:
 1098               	.LBE290:
 1099               	.LBE289:
 1100               	.LSM156:
 1101 0328 2097      		sbiw r28,0
 1102 032a 01F4      		brne .L88
 1103               	.LSM157:
 1104 032c 7093 0000 		sts (StartAddr)+1,r23
 1105 0330 6093 0000 		sts StartAddr,r22
 1106 0334 00C0      		rjmp .L89
 1107               	.LVL63:
 1108               	.L83:
 1109               	.LBE281:
 1110               	.LSM158:
 1111 0336 8230      		cpi r24,lo8(2)
 1112 0338 01F4      		brne .L89
 1113 033a 00C0      		rjmp .L103
 1114               	.L94:
 1115               	.LBB291:
 1116               	.LBB292:
 1117               	.LSM159:
 1118 033c 8091 F200 		lds r24,242
 1119 0340 9091 F300 		lds r25,(242)+1
 1120               	.LBE292:
 1121               	.LBE291:
 1122               	.LSM160:
 1123 0344 8097      		sbiw r24,32
 1124 0346 01F4      		brne .L91
 1125               	.LBB293:
 1126               	.LBB294:
 1127               	.LSM161:
 1128 0348 8091 E800 		lds r24,232
 1129 034c 8E7F      		andi r24,lo8(-2)
 1130 034e 8093 E800 		sts 232,r24
 1131 0352 00C0      		rjmp .L92
 1132               	.L93:
 1133               	.LBE294:
 1134               	.LBE293:
 1135               	.LSM162:
 1136 0354 8EB3      		in r24,62-32
 1137 0356 8823      		tst r24
 1138 0358 01F4      		brne .+2
 1139 035a 00C0      		rjmp .L95
 1140               	.L92:
 1141               	.LBB295:
 1142               	.LBB296:
 1143               	.LSM163:
 1144 035c 8091 E800 		lds r24,232
 1145               	.LBE296:
 1146               	.LBE295:
 1147               	.LSM164:
 1148 0360 80FF      		sbrs r24,0
 1149 0362 00C0      		rjmp .L93
 1150               	.L91:
 1151               	.LSM165:
 1152 0364 0091 0000 		lds r16,StartAddr
 1153 0368 1091 0000 		lds r17,(StartAddr)+1
 1154 036c C801      		movw r24,r16
 1155 036e 0E94 0000 		call __eerd_byte_usb1287
 1156               	.LBB297:
 1157               	.LBB298:
 1158               	.LSM166:
 1159 0372 8093 F100 		sts 241,r24
 1160               	.LBE298:
 1161               	.LBE297:
 1162               	.LSM167:
 1163 0376 0F5F      		subi r16,lo8(-(1))
 1164 0378 1F4F      		sbci r17,hi8(-(1))
 1165 037a 1093 0000 		sts (StartAddr)+1,r17
 1166 037e 0093 0000 		sts StartAddr,r16
 1167 0382 2197      		sbiw r28,1
 1168               	.L103:
 1169               	.LSM168:
 1170 0384 2097      		sbiw r28,0
 1171 0386 01F4      		brne .L94
 1172               	.LVL64:
 1173               	.L89:
 1174               	.LSM169:
 1175 0388 82E0      		ldi r24,lo8(2)
 1176               	.LVL65:
 1177 038a 8093 0000 		sts DFU_State,r24
 1178 038e 00C0      		rjmp .L106
 1179               	.LVL66:
 1180               	.L50:
 1181               	.LBE280:
 1182               	.LBB299:
 1183               	.LBB300:
 1184               	.LSM170:
 1185 0390 8091 E800 		lds r24,232
 1186 0394 877F      		andi r24,lo8(-9)
 1187 0396 8093 E800 		sts 232,r24
 1188               	.LBE300:
 1189               	.LBE299:
 1190               	.LSM171:
 1191 039a 8091 0000 		lds r24,DFU_Status
 1192               	.LBB301:
 1193               	.LBB302:
 1194               	.LSM172:
 1195 039e 8093 F100 		sts 241,r24
 1196               	.LBE302:
 1197               	.LBE301:
 1198               	.LBB303:
 1199               	.LBB304:
 1200 03a2 1092 F100 		sts 241,__zero_reg__
 1201               	.LBE304:
 1202               	.LBE303:
 1203               	.LBB305:
 1204               	.LBB306:
 1205               	.LSM173:
 1206 03a6 1092 F100 		sts 241,__zero_reg__
 1207               	.LSM174:
 1208 03aa 1092 F100 		sts 241,__zero_reg__
 1209               	.LBE306:
 1210               	.LBE305:
 1211               	.LSM175:
 1212 03ae 8091 0000 		lds r24,DFU_State
 1213               	.LBB307:
 1214               	.LBB308:
 1215               	.LSM176:
 1216 03b2 8093 F100 		sts 241,r24
 1217               	.LBE308:
 1218               	.LBE307:
 1219               	.LBB309:
 1220               	.LBB310:
 1221 03b6 1092 F100 		sts 241,__zero_reg__
 1222 03ba 00C0      		rjmp .L106
 1223               	.L51:
 1224               	.LBE310:
 1225               	.LBE309:
 1226               	.LBB311:
 1227               	.LBB312:
 1228               	.LSM177:
 1229 03bc 8091 E800 		lds r24,232
 1230 03c0 877F      		andi r24,lo8(-9)
 1231 03c2 8093 E800 		sts 232,r24
 1232               	.LBE312:
 1233               	.LBE311:
 1234               	.LSM178:
 1235 03c6 1092 0000 		sts DFU_Status,__zero_reg__
 1236 03ca 00C0      		rjmp .L105
 1237               	.L52:
 1238               	.LBB313:
 1239               	.LBB314:
 1240               	.LSM179:
 1241 03cc 8091 E800 		lds r24,232
 1242 03d0 877F      		andi r24,lo8(-9)
 1243 03d2 8093 E800 		sts 232,r24
 1244               	.LBE314:
 1245               	.LBE313:
 1246               	.LSM180:
 1247 03d6 8091 0000 		lds r24,DFU_State
 1248               	.L108:
 1249               	.LBB315:
 1250               	.LBB316:
 1251               	.LSM181:
 1252 03da 8093 F100 		sts 241,r24
 1253               	.LVL67:
 1254               	.L106:
 1255               	.LBE316:
 1256               	.LBE315:
 1257               	.LBB317:
 1258               	.LBB318:
 1259               	.LSM182:
 1260 03de 8091 E800 		lds r24,232
 1261 03e2 8E7F      		andi r24,lo8(-2)
 1262               	.LVL68:
 1263               	.L107:
 1264 03e4 8093 E800 		sts 232,r24
 1265 03e8 00C0      		rjmp .L105
 1266               	.LVL69:
 1267               	.L110:
 1268               	.LBE318:
 1269               	.LBE317:
 1270               	.LBB319:
 1271               	.LBB320:
 1272               	.LSM183:
 1273 03ea 8091 E800 		lds r24,232
 1274 03ee 877F      		andi r24,lo8(-9)
 1275 03f0 8093 E800 		sts 232,r24
 1276               	.LBE320:
 1277               	.LBE319:
 1278               	.LSM184:
 1279 03f4 82E0      		ldi r24,lo8(2)
 1280 03f6 8093 0000 		sts DFU_State,r24
 1281               	.LVL70:
 1282               	.L105:
 1283               	.LSM185:
 1284 03fa 0E94 0000 		call Endpoint_ClearStatusStage
 1285               	.LVL71:
 1286               	.L95:
 1287               	/* epilogue start */
 1288               	.LSM186:
 1289 03fe DF91      		pop r29
 1290 0400 CF91      		pop r28
 1291               	.LVL72:
 1292 0402 1F91      		pop r17
 1293 0404 0F91      		pop r16
 1294               	.LVL73:
 1295 0406 FF90      		pop r15
 1296 0408 EF90      		pop r14
 1297               	.LVL74:
 1298 040a DF90      		pop r13
 1299 040c CF90      		pop r12
 1300               	.LVL75:
 1301 040e BF90      		pop r11
 1302 0410 AF90      		pop r10
 1303 0412 9F90      		pop r9
 1304 0414 8F90      		pop r8
 1305 0416 0895      		ret
 1306               	.LFE101:
 1308               		.section	.text.ResetHardware,"ax",@progbits
 1310               	ResetHardware:
 1311               	.LFB100:
 1312               	.LSM187:
 1313               	/* prologue: function */
 1314               	/* frame size = 0 */
 1315               	.LSM188:
 1316 0000 7298      		cbi 46-32,2
 1317               	.LSM189:
 1318 0002 0E94 0000 		call USB_Disable
 1319               	.LSM190:
 1320 0006 81E0      		ldi r24,lo8(1)
 1321 0008 85BF      		out 85-32,r24
 1322               	.LSM191:
 1323 000a 15BE      		out 85-32,__zero_reg__
 1324               	/* epilogue start */
 1325               	.LSM192:
 1326 000c 0895      		ret
 1327               	.LFE100:
 1329               		.section	.text.main,"ax",@progbits
 1330               	.global	main
 1332               	main:
 1333               	.LFB97:
 1334               	.LSM193:
 1335 0000 CF92      		push r12
 1336 0002 DF92      		push r13
 1337 0004 EF92      		push r14
 1338 0006 FF92      		push r15
 1339 0008 0F93      		push r16
 1340 000a 1F93      		push r17
 1341 000c CF93      		push r28
 1342 000e DF93      		push r29
 1343               	/* prologue: function */
 1344               	/* frame size = 0 */
 1345               	.LBB402:
 1346               	.LBB403:
 1347               	.LBB404:
 1348               	.LBB405:
 1349               	.LSM194:
 1350 0010 1092 0000 		sts IsSecure,__zero_reg__
 1351               	.LSM195:
 1352 0014 91E0      		ldi r25,lo8(1)
 1353 0016 9093 0000 		sts RunBootloader,r25
 1354               	.LSM196:
 1355 001a 1092 0000 		sts WaitForExit,__zero_reg__
 1356               	.LSM197:
 1357 001e 82E0      		ldi r24,lo8(2)
 1358 0020 8093 0000 		sts DFU_State,r24
 1359               	.LSM198:
 1360 0024 1092 0000 		sts DFU_Status,__zero_reg__
 1361               	.LBE405:
 1362               	.LBE404:
 1363               	.LSM199:
 1364 0028 729B      		sbis 46-32,2
 1365 002a 00C0      		rjmp .L114
 1366 002c 9093 0000 		sts JumpedFromApp,r25
 1367 0030 00C0      		rjmp .L115
 1368               	.L114:
 1369 0032 1092 0000 		sts JumpedFromApp,__zero_reg__
 1370               	.L115:
 1371               	.LSM200:
 1372 0036 3B9A      		sbi 39-32,3
 1373               	.LSM201:
 1374 0038 4398      		cbi 40-32,3
 1375               	.LSM202:
 1376 003a 849A      		sbi 48-32,4
 1377               	.LSM203:
 1378 003c 8C98      		cbi 49-32,4
 1379               	.LSM204:
 1380 003e 84B7      		in r24,84-32
 1381 0040 877F      		andi r24,lo8(-9)
 1382 0042 84BF      		out 84-32,r24
 1383               	.LSM205:
 1384 0044 88E1      		ldi r24,lo8(24)
 1385               	/* #APP */
 1386               	 ;  219 "BootloaderDFU.c" 1
 1387 0046 0FB6      		in __tmp_reg__, __SREG__
 1388 0048 F894      		cli
 1389 004a 8093 6000 		sts 96, r24
 1390 004e 1092 6000 		sts 96, __zero_reg__
 1391 0052 0FBE      		out __SREG__,__tmp_reg__
 1392               		
 1393               	 ;  0 "" 2
 1394               	/* #NOAPP */
 1395               	.LBB406:
 1396               	.LSM206:
 1397 0054 80E0      		ldi r24,lo8(0)
 1398 0056 90E0      		ldi r25,hi8(0)
 1399 0058 20E8      		ldi r18,lo8(-128)
 1400               	/* #APP */
 1401               	 ;  222 "BootloaderDFU.c" 1
 1402 005a 0FB6      		in __tmp_reg__,__SREG__
 1403 005c F894      		cli
 1404 005e 2093 6100 		sts 97, r18
 1405 0062 8093 6100 		sts 97, r24
 1406 0066 0FBE      		out __SREG__, __tmp_reg__
 1407               	 ;  0 "" 2
 1408               	/* #NOAPP */
 1409               	.LBE406:
 1410               	.LSM207:
 1411 0068 6F9A      		sbi 45-32,7
 1412               	.LSM208:
 1413 006a 7798      		cbi 46-32,7
 1414               	.LSM209:
 1415 006c 269A      		sbi 36-32,6
 1416               	.LSM210:
 1417 006e 2E9A      		sbi 37-32,6
 1418               	.LSM211:
 1419 0070 6C98      		cbi 45-32,4
 1420               	.LSM212:
 1421 0072 749A      		sbi 46-32,4
 1422               	.LSM213:
 1423 0074 6A98      		cbi 45-32,2
 1424               	.LSM214:
 1425 0076 729A      		sbi 46-32,2
 1426               	.LSM215:
 1427 0078 81E0      		ldi r24,lo8(1)
 1428 007a 85BF      		out 85-32,r24
 1429               	.LSM216:
 1430 007c 82E0      		ldi r24,lo8(2)
 1431 007e 85BF      		out 85-32,r24
 1432               	.LSM217:
 1433 0080 0E94 0000 		call USB_Init
 1434               	.LBE403:
 1435               	.LBE402:
 1436               	.LSM218:
 1437 0084 629B      		sbis 44-32,2
 1438 0086 00C0      		rjmp .L116
 1439 0088 8091 0000 		lds r24,JumpedFromApp
 1440 008c 8823      		tst r24
 1441 008e 01F4      		brne .+2
 1442 0090 00C0      		rjmp .L146
 1443               	.L116:
 1444               	.LSM219:
 1445 0092 2E98      		cbi 37-32,6
 1446 0094 80ED      		ldi r24,lo8(2000)
 1447 0096 97E0      		ldi r25,hi8(2000)
 1448               	.LVL76:
 1449               	.LBB407:
 1450               	.LBB408:
 1451               	.LBB409:
 1452               	.LBB410:
 1453               	.LBB411:
 1454               	.LBB412:
 1455               	.LSM220:
 1456 0098 28EC      		ldi r18,lo8(200)
 1457 009a 30E0      		ldi r19,hi8(200)
 1458               	.L117:
 1459 009c F901      		movw r30,r18
 1460               	.LVL77:
 1461               	/* #APP */
 1462               	 ;  105 "/usr/local/CrossPack-AVR-20100115/lib/gcc/avr/4.3.3/../../../../avr/include/util/delay_bas
 1463 009e 3197      		1: sbiw r30,1
 1464 00a0 01F4      		brne 1b
 1465               	 ;  0 "" 2
 1466               	/* #NOAPP */
 1467               	.LBE412:
 1468               	.LBE411:
 1469               	.LSM221:
 1470 00a2 0197      		sbiw r24,1
 1471               	.LSM222:
 1472 00a4 01F4      		brne .L117
 1473               	.LBE410:
 1474               	.LBE409:
 1475               	.LBE408:
 1476               	.LBE407:
 1477               	.LSM223:
 1478 00a6 2E9A      		sbi 37-32,6
 1479 00a8 84EF      		ldi r24,lo8(500)
 1480 00aa 91E0      		ldi r25,hi8(500)
 1481               	.LVL78:
 1482               	.LBB413:
 1483               	.LBB414:
 1484               	.LBB415:
 1485               	.LBB416:
 1486               	.LBB417:
 1487               	.LBB418:
 1488               	.LSM224:
 1489 00ac 28EC      		ldi r18,lo8(200)
 1490 00ae 30E0      		ldi r19,hi8(200)
 1491               	.L118:
 1492 00b0 F901      		movw r30,r18
 1493               	.LVL79:
 1494               	/* #APP */
 1495               	 ;  105 "/usr/local/CrossPack-AVR-20100115/lib/gcc/avr/4.3.3/../../../../avr/include/util/delay_bas
 1496 00b2 3197      		1: sbiw r30,1
 1497 00b4 01F4      		brne 1b
 1498               	 ;  0 "" 2
 1499               	/* #NOAPP */
 1500               	.LBE418:
 1501               	.LBE417:
 1502               	.LSM225:
 1503 00b6 0197      		sbiw r24,1
 1504               	.LSM226:
 1505 00b8 01F4      		brne .L118
 1506               	.LBE416:
 1507               	.LBE415:
 1508               	.LBE414:
 1509               	.LBE413:
 1510               	.LSM227:
 1511 00ba 2E98      		cbi 37-32,6
 1512 00bc 84EF      		ldi r24,lo8(500)
 1513 00be 91E0      		ldi r25,hi8(500)
 1514               	.LVL80:
 1515               	.LBB419:
 1516               	.LBB420:
 1517               	.LBB421:
 1518               	.LBB422:
 1519               	.LBB423:
 1520               	.LBB424:
 1521               	.LSM228:
 1522 00c0 28EC      		ldi r18,lo8(200)
 1523 00c2 30E0      		ldi r19,hi8(200)
 1524               	.L119:
 1525 00c4 F901      		movw r30,r18
 1526               	.LVL81:
 1527               	/* #APP */
 1528               	 ;  105 "/usr/local/CrossPack-AVR-20100115/lib/gcc/avr/4.3.3/../../../../avr/include/util/delay_bas
 1529 00c6 3197      		1: sbiw r30,1
 1530 00c8 01F4      		brne 1b
 1531               	 ;  0 "" 2
 1532               	/* #NOAPP */
 1533               	.LBE424:
 1534               	.LBE423:
 1535               	.LSM229:
 1536 00ca 0197      		sbiw r24,1
 1537               	.LSM230:
 1538 00cc 01F4      		brne .L119
 1539               	.LBE422:
 1540               	.LBE421:
 1541               	.LBE420:
 1542               	.LBE419:
 1543               	.LSM231:
 1544 00ce 2E9A      		sbi 37-32,6
 1545 00d0 84EF      		ldi r24,lo8(500)
 1546 00d2 91E0      		ldi r25,hi8(500)
 1547               	.LVL82:
 1548               	.LBB425:
 1549               	.LBB426:
 1550               	.LBB427:
 1551               	.LBB428:
 1552               	.LBB429:
 1553               	.LBB430:
 1554               	.LSM232:
 1555 00d4 28EC      		ldi r18,lo8(200)
 1556 00d6 30E0      		ldi r19,hi8(200)
 1557               	.L120:
 1558 00d8 F901      		movw r30,r18
 1559               	.LVL83:
 1560               	/* #APP */
 1561               	 ;  105 "/usr/local/CrossPack-AVR-20100115/lib/gcc/avr/4.3.3/../../../../avr/include/util/delay_bas
 1562 00da 3197      		1: sbiw r30,1
 1563 00dc 01F4      		brne 1b
 1564               	 ;  0 "" 2
 1565               	/* #NOAPP */
 1566               	.LBE430:
 1567               	.LBE429:
 1568               	.LSM233:
 1569 00de 0197      		sbiw r24,1
 1570               	.LSM234:
 1571 00e0 01F4      		brne .L120
 1572               	.LBE428:
 1573               	.LBE427:
 1574               	.LBE426:
 1575               	.LBE425:
 1576               	.LSM235:
 1577 00e2 2E98      		cbi 37-32,6
 1578               	.LSM236:
 1579               	/* #APP */
 1580               	 ;  134 "BootloaderDFU.c" 1
 1581 00e4 7894      		sei
 1582               	 ;  0 "" 2
 1583               	/* #NOAPP */
 1584               	.LBB431:
 1585               	.LBB432:
 1586               	.LBB433:
 1587               	.LBB434:
 1588               	.LBB435:
 1589               	.LBB436:
 1590               	.LSM237:
 1591 00e6 F0ED      		ldi r31,lo8(2000)
 1592 00e8 EF2E      		mov r14,r31
 1593 00ea F7E0      		ldi r31,hi8(2000)
 1594 00ec FF2E      		mov r15,r31
 1595               	.LBE436:
 1596               	.LBE435:
 1597               	.LBE434:
 1598               	.LBE433:
 1599               	.LBE432:
 1600               	.LBE431:
 1601               	.LSM238:
 1602 00ee CC24      		clr r12
 1603 00f0 C394      		inc r12
 1604               	.LSM239:
 1605 00f2 08E1      		ldi r16,lo8(24)
 1606 00f4 10E0      		ldi r17,hi8(24)
 1607 00f6 ECE0      		ldi r30,lo8(12)
 1608 00f8 DE2E      		mov r13,r30
 1609               	.LVL84:
 1610               	.LBB446:
 1611               	.LBB447:
 1612               	.LBB448:
 1613               	.LBB449:
 1614               	.LSM240:
 1615 00fa C8EC      		ldi r28,lo8(200)
 1616 00fc D0E0      		ldi r29,hi8(200)
 1617 00fe 00C0      		rjmp .L145
 1618               	.LVL85:
 1619               	.L133:
 1620               	.LBE449:
 1621               	.LBE448:
 1622               	.LBE447:
 1623               	.LBE446:
 1624               	.LSM241:
 1625 0100 0E94 0000 		call USB_USBTask
 1626               	.LVL86:
 1627               	.LSM242:
 1628 0104 8091 0000 		lds r24,count
 1629 0108 9091 0000 		lds r25,(count)+1
 1630 010c 0196      		adiw r24,1
 1631 010e 9093 0000 		sts (count)+1,r25
 1632 0112 8093 0000 		sts count,r24
 1633 0116 8155      		subi r24,lo8(-15535)
 1634 0118 934C      		sbci r25,hi8(-15535)
 1635 011a 00F4      		brsh .+2
 1636 011c 00C0      		rjmp .L145
 1637               	.LSM243:
 1638 011e 1092 0000 		sts (count)+1,__zero_reg__
 1639 0122 1092 0000 		sts count,__zero_reg__
 1640               	.LSM244:
 1641 0126 2E9B      		sbis 37-32,6
 1642 0128 00C0      		rjmp .L122
 1643 012a 2E98      		cbi 37-32,6
 1644 012c 00C0      		rjmp .L123
 1645               	.L122:
 1646 012e 2E9A      		sbi 37-32,6
 1647               	.L123:
 1648               	.LSM245:
 1649 0130 649B      		sbis 44-32,4
 1650 0132 00C0      		rjmp .L124
 1651 0134 1092 0000 		sts restart,__zero_reg__
 1652 0138 00C0      		rjmp .L125
 1653               	.L124:
 1654 013a 8091 0000 		lds r24,restart
 1655 013e 8F5F      		subi r24,lo8(-(1))
 1656 0140 8093 0000 		sts restart,r24
 1657               	.L125:
 1658               	.LBB453:
 1659               	.LBB445:
 1660               	.LSM246:
 1661 0144 0F98      		cbi 33-32,7
 1662               	.LSM247:
 1663 0146 179A      		sbi 34-32,7
 1664               	.LBB440:
 1665               	.LBB439:
 1666               	.LBB438:
 1667               	.LBB437:
 1668               	.LSM248:
 1669 0148 C701      		movw r24,r14
 1670               	.LVL87:
 1671               	/* #APP */
 1672               	 ;  105 "/usr/local/CrossPack-AVR-20100115/lib/gcc/avr/4.3.3/../../../../avr/include/util/delay_bas
 1673 014a 0197      		1: sbiw r24,1
 1674 014c 01F4      		brne 1b
 1675               	 ;  0 "" 2
 1676               	/* #NOAPP */
 1677               	.LBE437:
 1678               	.LBE438:
 1679               	.LBE439:
 1680               	.LBE440:
 1681               	.LSM249:
 1682 014e 20B1      		in r18,32-32
 1683               	.LSM250:
 1684 0150 1798      		cbi 34-32,7
 1685               	.LBB441:
 1686               	.LBB442:
 1687               	.LBB443:
 1688               	.LBB444:
 1689               	.LSM251:
 1690 0152 C701      		movw r24,r14
 1691               	.LVL88:
 1692               	/* #APP */
 1693               	 ;  105 "/usr/local/CrossPack-AVR-20100115/lib/gcc/avr/4.3.3/../../../../avr/include/util/delay_bas
 1694 0154 0197      		1: sbiw r24,1
 1695 0156 01F4      		brne 1b
 1696               	 ;  0 "" 2
 1697               	/* #NOAPP */
 1698               	.LBE444:
 1699               	.LBE443:
 1700               	.LBE442:
 1701               	.LBE441:
 1702               	.LSM252:
 1703 0158 0799      		sbic 32-32,7
 1704 015a 00C0      		rjmp .L126
 1705               	.LBE445:
 1706               	.LBE453:
 1707               	.LSM253:
 1708 015c 27FF      		sbrs r18,7
 1709 015e 00C0      		rjmp .L126
 1710 0160 8091 0000 		lds r24,restart
 1711               	.LVL89:
 1712 0164 8823      		tst r24
 1713 0166 01F4      		brne .L126
 1714               	.LSM254:
 1715 0168 8091 0000 		lds r24,power
 1716 016c 8F5F      		subi r24,lo8(-(1))
 1717 016e 8093 0000 		sts power,r24
 1718 0172 00C0      		rjmp .L127
 1719               	.LVL90:
 1720               	.L126:
 1721               	.LSM255:
 1722 0174 1092 0000 		sts power,__zero_reg__
 1723               	.L127:
 1724               	.LSM256:
 1725 0178 8091 0000 		lds r24,power
 1726               	.LVL91:
 1727 017c 8531      		cpi r24,lo8(21)
 1728 017e 00F0      		brlo .L128
 1729               	.LSM257:
 1730 0180 0E94 0000 		call ResetHardware
 1731               	.LSM258:
 1732 0184 439A      		sbi 40-32,3
 1733 0186 88E8      		ldi r24,lo8(5000)
 1734 0188 93E1      		ldi r25,hi8(5000)
 1735               	.LVL92:
 1736               	.L129:
 1737               	.LBB454:
 1738               	.LBB452:
 1739               	.LBB451:
 1740               	.LBB450:
 1741               	.LSM259:
 1742 018a FE01      		movw r30,r28
 1743               	.LVL93:
 1744               	/* #APP */
 1745               	 ;  105 "/usr/local/CrossPack-AVR-20100115/lib/gcc/avr/4.3.3/../../../../avr/include/util/delay_bas
 1746 018c 3197      		1: sbiw r30,1
 1747 018e 01F4      		brne 1b
 1748               	 ;  0 "" 2
 1749               	/* #NOAPP */
 1750               	.LBE450:
 1751               	.LBE451:
 1752               	.LSM260:
 1753 0190 0197      		sbiw r24,1
 1754               	.LSM261:
 1755 0192 01F4      		brne .L129
 1756 0194 88E8      		ldi r24,lo8(5000)
 1757 0196 93E1      		ldi r25,hi8(5000)
 1758               	.LVL94:
 1759               	.L130:
 1760               	.LBE452:
 1761               	.LBE454:
 1762               	.LBB455:
 1763               	.LBB456:
 1764               	.LBB457:
 1765               	.LBB458:
 1766               	.LSM262:
 1767 0198 FE01      		movw r30,r28
 1768               	.LVL95:
 1769               	/* #APP */
 1770               	 ;  105 "/usr/local/CrossPack-AVR-20100115/lib/gcc/avr/4.3.3/../../../../avr/include/util/delay_bas
 1771 019a 3197      		1: sbiw r30,1
 1772 019c 01F4      		brne 1b
 1773               	 ;  0 "" 2
 1774               	/* #NOAPP */
 1775               	.LBE458:
 1776               	.LBE457:
 1777               	.LSM263:
 1778 019e 0197      		sbiw r24,1
 1779               	.LSM264:
 1780 01a0 01F4      		brne .L130
 1781 01a2 88E8      		ldi r24,lo8(5000)
 1782 01a4 93E1      		ldi r25,hi8(5000)
 1783               	.LVL96:
 1784               	.L131:
 1785               	.LBE456:
 1786               	.LBE455:
 1787               	.LBB459:
 1788               	.LBB460:
 1789               	.LBB461:
 1790               	.LBB462:
 1791               	.LSM265:
 1792 01a6 FE01      		movw r30,r28
 1793               	.LVL97:
 1794               	/* #APP */
 1795               	 ;  105 "/usr/local/CrossPack-AVR-20100115/lib/gcc/avr/4.3.3/../../../../avr/include/util/delay_bas
 1796 01a8 3197      		1: sbiw r30,1
 1797 01aa 01F4      		brne 1b
 1798               	 ;  0 "" 2
 1799               	/* #NOAPP */
 1800               	.LBE462:
 1801               	.LBE461:
 1802               	.LSM266:
 1803 01ac 0197      		sbiw r24,1
 1804               	.LSM267:
 1805 01ae 01F4      		brne .L131
 1806 01b0 88E8      		ldi r24,lo8(5000)
 1807 01b2 93E1      		ldi r25,hi8(5000)
 1808               	.LVL98:
 1809               	.L132:
 1810               	.LBE460:
 1811               	.LBE459:
 1812               	.LBB463:
 1813               	.LBB464:
 1814               	.LBB465:
 1815               	.LBB466:
 1816               	.LSM268:
 1817 01b4 FE01      		movw r30,r28
 1818               	.LVL99:
 1819               	/* #APP */
 1820               	 ;  105 "/usr/local/CrossPack-AVR-20100115/lib/gcc/avr/4.3.3/../../../../avr/include/util/delay_bas
 1821 01b6 3197      		1: sbiw r30,1
 1822 01b8 01F4      		brne 1b
 1823               	 ;  0 "" 2
 1824               	/* #NOAPP */
 1825               	.LBE466:
 1826               	.LBE465:
 1827               	.LSM269:
 1828 01ba 0197      		sbiw r24,1
 1829               	.LSM270:
 1830 01bc 01F4      		brne .L132
 1831               	.LBE464:
 1832               	.LBE463:
 1833               	.LSM271:
 1834               	/* #APP */
 1835               	 ;  166 "BootloaderDFU.c" 1
 1836 01be 0FB6      		in __tmp_reg__,__SREG__
 1837 01c0 F894      		cli
 1838 01c2 A895      		wdr
 1839 01c4 0093 6000 		sts 96,r16
 1840 01c8 0FBE      		out __SREG__,__tmp_reg__
 1841 01ca D092 6000 		sts 96,r13
 1842               		
 1843               	 ;  0 "" 2
 1844               	/* #NOAPP */
 1845               	.L128:
 1846               	.LSM272:
 1847 01ce 8091 0000 		lds r24,restart
 1848               	.LVL100:
 1849 01d2 8B30      		cpi r24,lo8(11)
 1850 01d4 00F0      		brlo .L145
 1851               	.LSM273:
 1852 01d6 C092 0000 		sts WaitForExit,r12
 1853               	.LSM274:
 1854 01da 1092 0000 		sts RunBootloader,__zero_reg__
 1855               	.LSM275:
 1856               	/* #APP */
 1857               	 ;  172 "BootloaderDFU.c" 1
 1858 01de 0FB6      		in __tmp_reg__,__SREG__
 1859 01e0 F894      		cli
 1860 01e2 A895      		wdr
 1861 01e4 0093 6000 		sts 96,r16
 1862 01e8 0FBE      		out __SREG__,__tmp_reg__
 1863 01ea D092 6000 		sts 96,r13
 1864               		
 1865               	 ;  0 "" 2
 1866               	.LSM276:
 1867               	/* #NOAPP */
 1868 01ee 1092 0000 		sts restart,__zero_reg__
 1869               	.LVL101:
 1870               	.L145:
 1871               	.LSM277:
 1872 01f2 8091 0000 		lds r24,RunBootloader
 1873               	.LVL102:
 1874 01f6 8823      		tst r24
 1875 01f8 01F0      		breq .+2
 1876 01fa 00C0      		rjmp .L133
 1877 01fc 8091 0000 		lds r24,WaitForExit
 1878 0200 8823      		tst r24
 1879 0202 01F0      		breq .+2
 1880 0204 00C0      		rjmp .L133
 1881               	.L146:
 1882               	.LSM278:
 1883 0206 0E94 0000 		call ResetHardware
 1884               	.LVL103:
 1885               	.LSM279:
 1886 020a E091 0000 		lds r30,AppStartPtr
 1887 020e F091 0000 		lds r31,(AppStartPtr)+1
 1888 0212 0995      		icall
 1889               	.LFE97:
 1891               		.lcomm WaitForExit,1
 1892               		.data
 1895               	DFU_State:
 1896 0000 02        		.byte	2
 1897               		.lcomm StartAddr,2
 1898               		.lcomm EndAddr,2
 1899               		.lcomm Flash64KBPage,1
 1900               		.lcomm DFU_Status,1
 1901               		.lcomm IsSecure,1
 1902               		.lcomm AppStartPtr,2
 1905               	RunBootloader:
 1906 0001 01        		.byte	1
 1909               	SignatureInfo.4412:
 1910 0002 1E        		.byte	30
 1911 0003 97        		.byte	-105
 1912 0004 82        		.byte	-126
 1915               	BootloaderInfo.4411:
 1916 0005 20        		.byte	32
 1917 0006 DC        		.byte	-36
 1918 0007 FB        		.byte	-5
 1919               		.lcomm JumpedFromApp,1
 1920               		.lcomm count,2
 1921               		.lcomm restart,1
 1922               		.lcomm power,1
 1923               		.lcomm SentCommand,8
 1924               		.lcomm ResponseByte,1
 1989               	.Letext0:
DEFINED SYMBOLS
                            *ABS*:00000000 BootloaderDFU.c
/var/folders/z6/vpmk4_yd42j_9xbv3n5kw3wc0000gn/T//cc03RK1F.s:2      *ABS*:0000003f __SREG__
/var/folders/z6/vpmk4_yd42j_9xbv3n5kw3wc0000gn/T//cc03RK1F.s:3      *ABS*:0000003e __SP_H__
/var/folders/z6/vpmk4_yd42j_9xbv3n5kw3wc0000gn/T//cc03RK1F.s:4      *ABS*:0000003d __SP_L__
/var/folders/z6/vpmk4_yd42j_9xbv3n5kw3wc0000gn/T//cc03RK1F.s:5      *ABS*:00000034 __CCP__
/var/folders/z6/vpmk4_yd42j_9xbv3n5kw3wc0000gn/T//cc03RK1F.s:6      *ABS*:00000000 __tmp_reg__
/var/folders/z6/vpmk4_yd42j_9xbv3n5kw3wc0000gn/T//cc03RK1F.s:7      *ABS*:00000001 __zero_reg__
/var/folders/z6/vpmk4_yd42j_9xbv3n5kw3wc0000gn/T//cc03RK1F.s:18     .text.DiscardFillerBytes:00000000 DiscardFillerBytes
/var/folders/z6/vpmk4_yd42j_9xbv3n5kw3wc0000gn/T//cc03RK1F.s:85     .text.LoadStartEndAddresses:00000000 LoadStartEndAddresses
/var/folders/z6/vpmk4_yd42j_9xbv3n5kw3wc0000gn/T//cc03RK1F.s:1922   .bss:0000000f SentCommand
/var/folders/z6/vpmk4_yd42j_9xbv3n5kw3wc0000gn/T//cc03RK1F.s:1891   .bss:00000001 StartAddr
/var/folders/z6/vpmk4_yd42j_9xbv3n5kw3wc0000gn/T//cc03RK1F.s:1897   .bss:00000003 EndAddr
/var/folders/z6/vpmk4_yd42j_9xbv3n5kw3wc0000gn/T//cc03RK1F.s:114    .text.ProcessBootloaderCommand:00000000 ProcessBootloaderCommand
/var/folders/z6/vpmk4_yd42j_9xbv3n5kw3wc0000gn/T//cc03RK1F.s:1900   .bss:00000007 IsSecure
/var/folders/z6/vpmk4_yd42j_9xbv3n5kw3wc0000gn/T//cc03RK1F.s:1895   .data:00000000 DFU_State
/var/folders/z6/vpmk4_yd42j_9xbv3n5kw3wc0000gn/T//cc03RK1F.s:1899   .bss:00000006 DFU_Status
/var/folders/z6/vpmk4_yd42j_9xbv3n5kw3wc0000gn/T//cc03RK1F.s:1898   .bss:00000005 Flash64KBPage
                             .bss:00000000 WaitForExit
/var/folders/z6/vpmk4_yd42j_9xbv3n5kw3wc0000gn/T//cc03RK1F.s:1901   .bss:00000008 AppStartPtr
/var/folders/z6/vpmk4_yd42j_9xbv3n5kw3wc0000gn/T//cc03RK1F.s:1905   .data:00000001 RunBootloader
/var/folders/z6/vpmk4_yd42j_9xbv3n5kw3wc0000gn/T//cc03RK1F.s:1915   .data:00000005 BootloaderInfo.4411
/var/folders/z6/vpmk4_yd42j_9xbv3n5kw3wc0000gn/T//cc03RK1F.s:1909   .data:00000002 SignatureInfo.4412
/var/folders/z6/vpmk4_yd42j_9xbv3n5kw3wc0000gn/T//cc03RK1F.s:1923   .bss:00000017 ResponseByte
/var/folders/z6/vpmk4_yd42j_9xbv3n5kw3wc0000gn/T//cc03RK1F.s:510    .text.EVENT_USB_Device_ControlRequest:00000000 EVENT_USB_Device_ControlRequest
/var/folders/z6/vpmk4_yd42j_9xbv3n5kw3wc0000gn/T//cc03RK1F.s:1310   .text.ResetHardware:00000000 ResetHardware
/var/folders/z6/vpmk4_yd42j_9xbv3n5kw3wc0000gn/T//cc03RK1F.s:1332   .text.main:00000000 main
/var/folders/z6/vpmk4_yd42j_9xbv3n5kw3wc0000gn/T//cc03RK1F.s:1902   .bss:0000000a JumpedFromApp
/var/folders/z6/vpmk4_yd42j_9xbv3n5kw3wc0000gn/T//cc03RK1F.s:1919   .bss:0000000b count
/var/folders/z6/vpmk4_yd42j_9xbv3n5kw3wc0000gn/T//cc03RK1F.s:1920   .bss:0000000d restart
/var/folders/z6/vpmk4_yd42j_9xbv3n5kw3wc0000gn/T//cc03RK1F.s:1921   .bss:0000000e power

UNDEFINED SYMBOLS
USB_ControlRequest
__eewr_byte_usb1287
__eerd_byte_usb1287
Endpoint_ClearStatusStage
USB_Disable
USB_Init
USB_USBTask
__do_copy_data
__do_clear_bss
