   1               		.file	"multiCameraIrControl.cpp"
   2               	__SREG__ = 0x3f
   3               	__SP_H__ = 0x3e
   4               	__SP_L__ = 0x3d
   5               	__CCP__  = 0x34
   6               	__tmp_reg__ = 0
   7               	__zero_reg__ = 1
  15               	.Ltext0:
  16               	.global	_ZN2IRC2Ev
  18               	_ZN2IRC2Ev:
  19               	.LFB7:
  20               	.LM1:
  21               	.LVL0:
  22               	/* prologue: function */
  23               	/* frame size = 0 */
  24               	.LBB597:
  25               	.LM2:
  26 0000 279A      		sbi 36-32,7
  27               	/* epilogue start */
  28               	.LBE597:
  29               	.LM3:
  30 0002 0895      		ret
  31               	.LFE7:
  33               	.global	_ZN2IRC1Ev
  35               	_ZN2IRC1Ev:
  36               	.LFB8:
  37               	.LM4:
  38               	.LVL1:
  39               	/* prologue: function */
  40               	/* frame size = 0 */
  41               	.LBB598:
  42               	.LM5:
  43 0004 279A      		sbi 36-32,7
  44               	/* epilogue start */
  45               	.LBE598:
  46               	.LM6:
  47 0006 0895      		ret
  48               	.LFE8:
  50               	.global	_ZN2IR4highEji
  52               	_ZN2IR4highEji:
  53               	.LFB9:
  54               	.LM7:
  55               	.LVL2:
  56 0008 2F92      		push r2
  57 000a 3F92      		push r3
  58 000c 4F92      		push r4
  59 000e 5F92      		push r5
  60 0010 6F92      		push r6
  61 0012 7F92      		push r7
  62 0014 8F92      		push r8
  63 0016 9F92      		push r9
  64 0018 AF92      		push r10
  65 001a BF92      		push r11
  66 001c CF92      		push r12
  67 001e DF92      		push r13
  68 0020 EF92      		push r14
  69 0022 FF92      		push r15
  70 0024 0F93      		push r16
  71 0026 1F93      		push r17
  72 0028 DF93      		push r29
  73 002a CF93      		push r28
  74 002c CDB7      		in r28,__SP_L__
  75 002e DEB7      		in r29,__SP_H__
  76 0030 6097      		sbiw r28,16
  77 0032 0FB6      		in __tmp_reg__,__SREG__
  78 0034 F894      		cli
  79 0036 DEBF      		out __SP_H__,r29
  80 0038 0FBE      		out __SREG__,__tmp_reg__
  81 003a CDBF      		out __SP_L__,r28
  82               	/* prologue: function */
  83               	/* frame size = 16 */
  84 003c 9B01      		movw r18,r22
  85               	.LBB599:
  86               	.LM8:
  87 003e 84EF      		ldi r24,lo8(500)
  88 0040 91E0      		ldi r25,hi8(500)
  89               	.LVL3:
  90 0042 BA01      		movw r22,r20
  91               	.LVL4:
  92 0044 0E94 0000 		call __divmodhi4
  93 0048 6450      		subi r22,lo8(-(-4))
  94 004a 7040      		sbci r23,hi8(-(-4))
  95               	.LVL5:
  96               	.LM9:
  97               	/* #APP */
  98               	 ;  40 "src/multiCameraIrControl.cpp" 1
  99 004c F894      		cli
 100               	 ;  0 "" 2
 101               	.LM10:
 102               	/* #NOAPP */
 103 004e CB01      		movw r24,r22
 104 0050 880F      		lsl r24
 105 0052 991F      		rol r25
 106               	.LVL6:
 107 0054 7C01      		movw r14,r24
 108 0056 0027      		clr r16
 109 0058 F7FC      		sbrc r15,7
 110 005a 0095      		com r16
 111 005c 102F      		mov r17,r16
 112 005e ED82      		std Y+5,r14
 113 0060 FE82      		std Y+6,r15
 114 0062 0F83      		std Y+7,r16
 115 0064 1887      		std Y+8,r17
 116 0066 1982      		std Y+1,__zero_reg__
 117 0068 1A82      		std Y+2,__zero_reg__
 118 006a 1B82      		std Y+3,__zero_reg__
 119 006c 1C82      		std Y+4,__zero_reg__
 120               	.LVL7:
 121               	.LM11:
 122 006e C901      		movw r24,r18
 123 0070 A0E0      		ldi r26,lo8(0)
 124 0072 B0E0      		ldi r27,hi8(0)
 125 0074 8987      		std Y+9,r24
 126 0076 9A87      		std Y+10,r25
 127 0078 AB87      		std Y+11,r26
 128 007a BC87      		std Y+12,r27
 129               	.LM12:
 130 007c 7B01      		movw r14,r22
 131 007e 0027      		clr r16
 132 0080 F7FC      		sbrc r15,7
 133 0082 0095      		com r16
 134 0084 102F      		mov r17,r16
 135 0086 ED86      		std Y+13,r14
 136 0088 FE86      		std Y+14,r15
 137 008a 0F87      		std Y+15,r16
 138 008c 188B      		std Y+16,r17
 139 008e 00C0      		rjmp .L6
 140               	.LVL8:
 141               	.L33:
 142               	.LM13:
 143 0090 2F98      		cbi 37-32,7
 144               	.LM14:
 145 0092 6D85      		ldd r22,Y+13
 146 0094 7E85      		ldd r23,Y+14
 147 0096 8F85      		ldd r24,Y+15
 148 0098 9889      		ldd r25,Y+16
 149               	.LVL9:
 150 009a 0E94 0000 		call __floatsisf
 151 009e 1B01      		movw r2,r22
 152 00a0 2C01      		movw r4,r24
 153               	.LBB600:
 154               	.LBB601:
 155               	.LBB602:
 156               	.LM15:
 157 00a2 2BEA      		ldi r18,lo8(0x402aaaab)
 158 00a4 3AEA      		ldi r19,hi8(0x402aaaab)
 159 00a6 4AE2      		ldi r20,hlo8(0x402aaaab)
 160 00a8 50E4      		ldi r21,hhi8(0x402aaaab)
 161 00aa 0E94 0000 		call __mulsf3
 162 00ae 5B01      		movw r10,r22
 163 00b0 6C01      		movw r12,r24
 164               	.LM16:
 165 00b2 20E0      		ldi r18,lo8(0x3f800000)
 166 00b4 30E0      		ldi r19,hi8(0x3f800000)
 167 00b6 40E8      		ldi r20,hlo8(0x3f800000)
 168 00b8 5FE3      		ldi r21,hhi8(0x3f800000)
 169 00ba 0E94 0000 		call __ltsf2
 170 00be 8823      		tst r24
 171 00c0 04F4      		brge .L43
 172 00c2 61E0      		ldi r22,lo8(1)
 173               	.LVL10:
 174 00c4 00C0      		rjmp .L9
 175               	.LVL11:
 176               	.L43:
 177               	.LM17:
 178 00c6 C601      		movw r24,r12
 179 00c8 B501      		movw r22,r10
 180 00ca 20E0      		ldi r18,lo8(0x437f0000)
 181 00cc 30E0      		ldi r19,hi8(0x437f0000)
 182 00ce 4FE7      		ldi r20,hlo8(0x437f0000)
 183 00d0 53E4      		ldi r21,hhi8(0x437f0000)
 184 00d2 0E94 0000 		call __gtsf2
 185 00d6 1816      		cp __zero_reg__,r24
 186 00d8 04F0      		brlt .+2
 187 00da 00C0      		rjmp .L44
 188               	.LM18:
 189 00dc C201      		movw r24,r4
 190 00de B101      		movw r22,r2
 191 00e0 20E0      		ldi r18,lo8(0x447a0000)
 192 00e2 30E0      		ldi r19,hi8(0x447a0000)
 193 00e4 4AE7      		ldi r20,hlo8(0x447a0000)
 194 00e6 54E4      		ldi r21,hhi8(0x447a0000)
 195 00e8 0E94 0000 		call __divsf3
 196 00ec 3B01      		movw r6,r22
 197 00ee 4C01      		movw r8,r24
 198               	.LBB603:
 199               	.LBB604:
 200               	.LBB605:
 201               	.LM19:
 202 00f0 20E0      		ldi r18,lo8(0x44fa0000)
 203 00f2 30E0      		ldi r19,hi8(0x44fa0000)
 204 00f4 4AEF      		ldi r20,hlo8(0x44fa0000)
 205 00f6 54E4      		ldi r21,hhi8(0x44fa0000)
 206 00f8 0E94 0000 		call __mulsf3
 207 00fc 7B01      		movw r14,r22
 208 00fe 8C01      		movw r16,r24
 209               	.LM20:
 210 0100 20E0      		ldi r18,lo8(0x3f800000)
 211 0102 30E0      		ldi r19,hi8(0x3f800000)
 212 0104 40E8      		ldi r20,hlo8(0x3f800000)
 213 0106 5FE3      		ldi r21,hhi8(0x3f800000)
 214 0108 0E94 0000 		call __ltsf2
 215 010c 8823      		tst r24
 216 010e 04F4      		brge .L45
 217 0110 61E0      		ldi r22,lo8(1)
 218 0112 70E0      		ldi r23,hi8(1)
 219               	.LVL12:
 220 0114 00C0      		rjmp .L14
 221               	.LVL13:
 222               	.L45:
 223               	.LM21:
 224 0116 C801      		movw r24,r16
 225 0118 B701      		movw r22,r14
 226 011a 20E0      		ldi r18,lo8(0x477fff00)
 227 011c 3FEF      		ldi r19,hi8(0x477fff00)
 228 011e 4FE7      		ldi r20,hlo8(0x477fff00)
 229 0120 57E4      		ldi r21,hhi8(0x477fff00)
 230 0122 0E94 0000 		call __gtsf2
 231 0126 1816      		cp __zero_reg__,r24
 232 0128 04F4      		brge .L46
 233               	.LM22:
 234 012a C401      		movw r24,r8
 235 012c B301      		movw r22,r6
 236 012e 20E0      		ldi r18,lo8(0x41200000)
 237 0130 30E0      		ldi r19,hi8(0x41200000)
 238 0132 40E2      		ldi r20,hlo8(0x41200000)
 239 0134 51E4      		ldi r21,hhi8(0x41200000)
 240 0136 0E94 0000 		call __mulsf3
 241 013a 0E94 0000 		call __fixunssfsi
 242 013e 00C0      		rjmp .L17
 243               	.LVL14:
 244               	.L18:
 245               	.LBB606:
 246               	.LBB607:
 247               	.LM23:
 248 0140 88EC      		ldi r24,lo8(200)
 249 0142 90E0      		ldi r25,hi8(200)
 250               	/* #APP */
 251               	 ;  110 "/usr/local/CrossPack-AVR-20100115/lib/gcc/avr/4.3.3/../../../../avr/include/util/delay_bas
 252 0144 0197      		1: sbiw r24,1
 253 0146 01F4      		brne 1b
 254               	 ;  0 "" 2
 255               	/* #NOAPP */
 256               	.LBE607:
 257               	.LBE606:
 258               	.LM24:
 259 0148 6150      		subi r22,lo8(-(-1))
 260 014a 7040      		sbci r23,hi8(-(-1))
 261               	.L17:
 262               	.LM25:
 263 014c 6115      		cp r22,__zero_reg__
 264 014e 7105      		cpc r23,__zero_reg__
 265 0150 01F4      		brne .L18
 266 0152 00C0      		rjmp .L19
 267               	.LVL15:
 268               	.L46:
 269               	.LM26:
 270 0154 C801      		movw r24,r16
 271 0156 B701      		movw r22,r14
 272 0158 0E94 0000 		call __fixunssfsi
 273               	.LVL16:
 274               	.L14:
 275               	.LBB608:
 276               	.LBB609:
 277               	.LM27:
 278 015c CB01      		movw r24,r22
 279               	.LVL17:
 280               	/* #APP */
 281               	 ;  110 "/usr/local/CrossPack-AVR-20100115/lib/gcc/avr/4.3.3/../../../../avr/include/util/delay_bas
 282 015e 0197      		1: sbiw r24,1
 283 0160 01F4      		brne 1b
 284               	 ;  0 "" 2
 285               	/* #NOAPP */
 286 0162 00C0      		rjmp .L19
 287               	.LVL18:
 288               	.L44:
 289               	.LBE609:
 290               	.LBE608:
 291               	.LBE605:
 292               	.LBE604:
 293               	.LBE603:
 294               	.LM28:
 295 0164 C601      		movw r24,r12
 296 0166 B501      		movw r22,r10
 297 0168 0E94 0000 		call __fixunssfsi
 298               	.LVL19:
 299               	.L9:
 300               	.LBB610:
 301               	.LBB611:
 302               	.LM29:
 303               	/* #APP */
 304               	 ;  88 "/usr/local/CrossPack-AVR-20100115/lib/gcc/avr/4.3.3/../../../../avr/include/util/delay_basi
 305 016c 6A95      		1: dec r22
 306 016e 01F4      		brne 1b
 307               	 ;  0 "" 2
 308               	.LVL20:
 309               	/* #NOAPP */
 310               	.L19:
 311               	.LBE611:
 312               	.LBE610:
 313               	.LBE602:
 314               	.LBE601:
 315               	.LBE600:
 316               	.LM30:
 317 0170 2F9A      		sbi 37-32,7
 318               	.LBB612:
 319               	.LBB613:
 320               	.LBB614:
 321               	.LM31:
 322 0172 C601      		movw r24,r12
 323 0174 B501      		movw r22,r10
 324               	.LVL21:
 325 0176 20E0      		ldi r18,lo8(0x3f800000)
 326 0178 30E0      		ldi r19,hi8(0x3f800000)
 327 017a 40E8      		ldi r20,hlo8(0x3f800000)
 328 017c 5FE3      		ldi r21,hhi8(0x3f800000)
 329 017e 0E94 0000 		call __ltsf2
 330               	.LVL22:
 331 0182 8823      		tst r24
 332 0184 04F4      		brge .L47
 333 0186 61E0      		ldi r22,lo8(1)
 334               	.LVL23:
 335 0188 00C0      		rjmp .L22
 336               	.LVL24:
 337               	.L47:
 338               	.LM32:
 339 018a C601      		movw r24,r12
 340 018c B501      		movw r22,r10
 341 018e 20E0      		ldi r18,lo8(0x437f0000)
 342 0190 30E0      		ldi r19,hi8(0x437f0000)
 343 0192 4FE7      		ldi r20,hlo8(0x437f0000)
 344 0194 53E4      		ldi r21,hhi8(0x437f0000)
 345 0196 0E94 0000 		call __gtsf2
 346 019a 1816      		cp __zero_reg__,r24
 347 019c 04F0      		brlt .+2
 348 019e 00C0      		rjmp .L48
 349               	.LM33:
 350 01a0 C201      		movw r24,r4
 351 01a2 B101      		movw r22,r2
 352 01a4 20E0      		ldi r18,lo8(0x447a0000)
 353 01a6 30E0      		ldi r19,hi8(0x447a0000)
 354 01a8 4AE7      		ldi r20,hlo8(0x447a0000)
 355 01aa 54E4      		ldi r21,hhi8(0x447a0000)
 356 01ac 0E94 0000 		call __divsf3
 357 01b0 5B01      		movw r10,r22
 358 01b2 6C01      		movw r12,r24
 359               	.LVL25:
 360               	.LBB615:
 361               	.LBB616:
 362               	.LBB617:
 363               	.LM34:
 364 01b4 20E0      		ldi r18,lo8(0x44fa0000)
 365 01b6 30E0      		ldi r19,hi8(0x44fa0000)
 366 01b8 4AEF      		ldi r20,hlo8(0x44fa0000)
 367 01ba 54E4      		ldi r21,hhi8(0x44fa0000)
 368 01bc 0E94 0000 		call __mulsf3
 369 01c0 7B01      		movw r14,r22
 370 01c2 8C01      		movw r16,r24
 371               	.LM35:
 372 01c4 20E0      		ldi r18,lo8(0x3f800000)
 373 01c6 30E0      		ldi r19,hi8(0x3f800000)
 374 01c8 40E8      		ldi r20,hlo8(0x3f800000)
 375 01ca 5FE3      		ldi r21,hhi8(0x3f800000)
 376 01cc 0E94 0000 		call __ltsf2
 377 01d0 8823      		tst r24
 378 01d2 04F4      		brge .L49
 379 01d4 61E0      		ldi r22,lo8(1)
 380 01d6 70E0      		ldi r23,hi8(1)
 381               	.LVL26:
 382 01d8 00C0      		rjmp .L27
 383               	.LVL27:
 384               	.L49:
 385               	.LM36:
 386 01da C801      		movw r24,r16
 387 01dc B701      		movw r22,r14
 388 01de 20E0      		ldi r18,lo8(0x477fff00)
 389 01e0 3FEF      		ldi r19,hi8(0x477fff00)
 390 01e2 4FE7      		ldi r20,hlo8(0x477fff00)
 391 01e4 57E4      		ldi r21,hhi8(0x477fff00)
 392 01e6 0E94 0000 		call __gtsf2
 393 01ea 1816      		cp __zero_reg__,r24
 394 01ec 04F4      		brge .L50
 395               	.LM37:
 396 01ee C601      		movw r24,r12
 397 01f0 B501      		movw r22,r10
 398 01f2 20E0      		ldi r18,lo8(0x41200000)
 399 01f4 30E0      		ldi r19,hi8(0x41200000)
 400 01f6 40E2      		ldi r20,hlo8(0x41200000)
 401 01f8 51E4      		ldi r21,hhi8(0x41200000)
 402 01fa 0E94 0000 		call __mulsf3
 403 01fe 0E94 0000 		call __fixunssfsi
 404 0202 00C0      		rjmp .L30
 405               	.LVL28:
 406               	.L31:
 407               	.LBB618:
 408               	.LBB619:
 409               	.LM38:
 410 0204 88EC      		ldi r24,lo8(200)
 411 0206 90E0      		ldi r25,hi8(200)
 412               	/* #APP */
 413               	 ;  110 "/usr/local/CrossPack-AVR-20100115/lib/gcc/avr/4.3.3/../../../../avr/include/util/delay_bas
 414 0208 0197      		1: sbiw r24,1
 415 020a 01F4      		brne 1b
 416               	 ;  0 "" 2
 417               	/* #NOAPP */
 418               	.LBE619:
 419               	.LBE618:
 420               	.LM39:
 421 020c 6150      		subi r22,lo8(-(-1))
 422 020e 7040      		sbci r23,hi8(-(-1))
 423               	.L30:
 424               	.LM40:
 425 0210 6115      		cp r22,__zero_reg__
 426 0212 7105      		cpc r23,__zero_reg__
 427 0214 01F4      		brne .L31
 428 0216 00C0      		rjmp .L32
 429               	.LVL29:
 430               	.L50:
 431               	.LM41:
 432 0218 C801      		movw r24,r16
 433 021a B701      		movw r22,r14
 434 021c 0E94 0000 		call __fixunssfsi
 435               	.LVL30:
 436               	.L27:
 437               	.LBB620:
 438               	.LBB621:
 439               	.LM42:
 440 0220 CB01      		movw r24,r22
 441               	.LVL31:
 442               	/* #APP */
 443               	 ;  110 "/usr/local/CrossPack-AVR-20100115/lib/gcc/avr/4.3.3/../../../../avr/include/util/delay_bas
 444 0222 0197      		1: sbiw r24,1
 445 0224 01F4      		brne 1b
 446               	 ;  0 "" 2
 447               	/* #NOAPP */
 448 0226 00C0      		rjmp .L32
 449               	.LVL32:
 450               	.L48:
 451               	.LBE621:
 452               	.LBE620:
 453               	.LBE617:
 454               	.LBE616:
 455               	.LBE615:
 456               	.LM43:
 457 0228 C601      		movw r24,r12
 458 022a B501      		movw r22,r10
 459 022c 0E94 0000 		call __fixunssfsi
 460               	.LVL33:
 461               	.L22:
 462               	.LBB622:
 463               	.LBB623:
 464               	.LM44:
 465               	/* #APP */
 466               	 ;  88 "/usr/local/CrossPack-AVR-20100115/lib/gcc/avr/4.3.3/../../../../avr/include/util/delay_basi
 467 0230 6A95      		1: dec r22
 468 0232 01F4      		brne 1b
 469               	 ;  0 "" 2
 470               	.LVL34:
 471               	/* #NOAPP */
 472               	.L32:
 473               	.LBE623:
 474               	.LBE622:
 475               	.LBE614:
 476               	.LBE613:
 477               	.LBE612:
 478               	.LM45:
 479 0234 0981      		ldd r16,Y+1
 480 0236 1A81      		ldd r17,Y+2
 481 0238 2B81      		ldd r18,Y+3
 482 023a 3C81      		ldd r19,Y+4
 483 023c 8D81      		ldd r24,Y+5
 484 023e 9E81      		ldd r25,Y+6
 485 0240 AF81      		ldd r26,Y+7
 486 0242 B885      		ldd r27,Y+8
 487               	.LVL35:
 488 0244 080F      		add r16,r24
 489 0246 191F      		adc r17,r25
 490 0248 2A1F      		adc r18,r26
 491 024a 3B1F      		adc r19,r27
 492 024c 0983      		std Y+1,r16
 493 024e 1A83      		std Y+2,r17
 494 0250 2B83      		std Y+3,r18
 495 0252 3C83      		std Y+4,r19
 496               	.LVL36:
 497               	.L6:
 498               	.LM46:
 499 0254 E980      		ldd r14,Y+1
 500 0256 FA80      		ldd r15,Y+2
 501 0258 0B81      		ldd r16,Y+3
 502 025a 1C81      		ldd r17,Y+4
 503 025c 2985      		ldd r18,Y+9
 504 025e 3A85      		ldd r19,Y+10
 505 0260 4B85      		ldd r20,Y+11
 506 0262 5C85      		ldd r21,Y+12
 507               	.LVL37:
 508 0264 2E15      		cp r18,r14
 509 0266 3F05      		cpc r19,r15
 510 0268 4007      		cpc r20,r16
 511 026a 5107      		cpc r21,r17
 512 026c 00F0      		brlo .+2
 513 026e 00C0      		rjmp .L33
 514               	.LM47:
 515               	/* #APP */
 516               	 ;  48 "src/multiCameraIrControl.cpp" 1
 517 0270 7894      		sei
 518               	 ;  0 "" 2
 519               	/* epilogue start */
 520               	/* #NOAPP */
 521               	.LBE599:
 522               	.LM48:
 523 0272 6096      		adiw r28,16
 524 0274 0FB6      		in __tmp_reg__,__SREG__
 525 0276 F894      		cli
 526 0278 DEBF      		out __SP_H__,r29
 527 027a 0FBE      		out __SREG__,__tmp_reg__
 528 027c CDBF      		out __SP_L__,r28
 529 027e CF91      		pop r28
 530 0280 DF91      		pop r29
 531 0282 1F91      		pop r17
 532 0284 0F91      		pop r16
 533 0286 FF90      		pop r15
 534 0288 EF90      		pop r14
 535 028a DF90      		pop r13
 536 028c CF90      		pop r12
 537 028e BF90      		pop r11
 538 0290 AF90      		pop r10
 539               	.LVL38:
 540 0292 9F90      		pop r9
 541 0294 8F90      		pop r8
 542 0296 7F90      		pop r7
 543 0298 6F90      		pop r6
 544 029a 5F90      		pop r5
 545 029c 4F90      		pop r4
 546 029e 3F90      		pop r3
 547 02a0 2F90      		pop r2
 548 02a2 0895      		ret
 549               	.LFE9:
 551               	.global	_ZN2IR10shutterNowEv
 553               	_ZN2IR10shutterNowEv:
 554               	.LFB10:
 555               	.LM49:
 556               	.LVL39:
 557 02a4 4F92      		push r4
 558 02a6 5F92      		push r5
 559 02a8 6F92      		push r6
 560 02aa 7F92      		push r7
 561 02ac 8F92      		push r8
 562 02ae 9F92      		push r9
 563 02b0 AF92      		push r10
 564 02b2 BF92      		push r11
 565 02b4 CF92      		push r12
 566 02b6 DF92      		push r13
 567 02b8 EF92      		push r14
 568 02ba FF92      		push r15
 569 02bc 0F93      		push r16
 570 02be 1F93      		push r17
 571 02c0 DF93      		push r29
 572 02c2 CF93      		push r28
 573 02c4 CDB7      		in r28,__SP_L__
 574 02c6 DEB7      		in r29,__SP_H__
 575 02c8 C555      		subi r28,lo8(-(-85))
 576 02ca D040      		sbci r29,hi8(-(-85))
 577 02cc 0FB6      		in __tmp_reg__,__SREG__
 578 02ce F894      		cli
 579 02d0 DEBF      		out __SP_H__,r29
 580 02d2 0FBE      		out __SREG__,__tmp_reg__
 581 02d4 CDBF      		out __SP_L__,r28
 582               	/* prologue: function */
 583               	/* frame size = 85 */
 584 02d6 7C01      		movw r14,r24
 585               	.LBB624:
 586               	.LM50:
 587 02d8 FC01      		movw r30,r24
 588 02da 8081      		ld r24,Z
 589               	.LVL40:
 590 02dc 8130      		cpi r24,lo8(1)
 591 02de 01F4      		brne .L52
 592               	.LM51:
 593 02e0 C701      		movw r24,r14
 594 02e2 60ED      		ldi r22,lo8(2000)
 595 02e4 77E0      		ldi r23,hi8(2000)
 596 02e6 48E2      		ldi r20,lo8(40)
 597 02e8 50E0      		ldi r21,hi8(40)
 598 02ea 0E94 0000 		call _ZN2IR4highEji
 599               	.LBB625:
 600               	.LBB626:
 601               	.LBB627:
 602               	.LBB628:
 603               	.LBB629:
 604               	.LBB630:
 605               	.LBB631:
 606               	.LBB632:
 607               	.LM52:
 608 02ee 8CE6      		ldi r24,lo8(-9876)
 609 02f0 99ED      		ldi r25,hi8(-9876)
 610               	.LVL41:
 611               	/* #APP */
 612               	 ;  110 "/usr/local/CrossPack-AVR-20100115/lib/gcc/avr/4.3.3/../../../../avr/include/util/delay_bas
 613 02f2 0197      		1: sbiw r24,1
 614 02f4 01F4      		brne 1b
 615               	 ;  0 "" 2
 616               	/* #NOAPP */
 617               	.LBE632:
 618               	.LBE631:
 619               	.LBE630:
 620               	.LBE629:
 621               	.LBE628:
 622               	.LBE627:
 623               	.LBE626:
 624               	.LBE625:
 625               	.LM53:
 626 02f6 C701      		movw r24,r14
 627               	.LVL42:
 628 02f8 66E8      		ldi r22,lo8(390)
 629 02fa 71E0      		ldi r23,hi8(390)
 630 02fc 48E2      		ldi r20,lo8(40)
 631 02fe 50E0      		ldi r21,hi8(40)
 632 0300 0E94 0000 		call _ZN2IR4highEji
 633               	.LBB633:
 634               	.LBB634:
 635               	.LBB635:
 636               	.LBB636:
 637               	.LBB637:
 638               	.LBB638:
 639               	.LBB639:
 640               	.LBB640:
 641               	.LM54:
 642 0304 88E5      		ldi r24,lo8(3160)
 643 0306 9CE0      		ldi r25,hi8(3160)
 644               	.LVL43:
 645               	/* #APP */
 646               	 ;  110 "/usr/local/CrossPack-AVR-20100115/lib/gcc/avr/4.3.3/../../../../avr/include/util/delay_bas
 647 0308 0197      		1: sbiw r24,1
 648 030a 01F4      		brne 1b
 649               	 ;  0 "" 2
 650               	/* #NOAPP */
 651               	.LBE640:
 652               	.LBE639:
 653               	.LBE638:
 654               	.LBE637:
 655               	.LBE636:
 656               	.LBE635:
 657               	.LBE634:
 658               	.LBE633:
 659               	.LM55:
 660 030c C701      		movw r24,r14
 661               	.LVL44:
 662 030e 6AE9      		ldi r22,lo8(410)
 663 0310 71E0      		ldi r23,hi8(410)
 664 0312 48E2      		ldi r20,lo8(40)
 665 0314 50E0      		ldi r21,hi8(40)
 666 0316 0E94 0000 		call _ZN2IR4highEji
 667               	.LBB641:
 668               	.LBB642:
 669               	.LBB643:
 670               	.LBB644:
 671               	.LBB645:
 672               	.LBB646:
 673               	.LBB647:
 674               	.LBB648:
 675               	.LM56:
 676 031a 88EF      		ldi r24,lo8(7160)
 677 031c 9BE1      		ldi r25,hi8(7160)
 678               	.LVL45:
 679               	/* #APP */
 680               	 ;  110 "/usr/local/CrossPack-AVR-20100115/lib/gcc/avr/4.3.3/../../../../avr/include/util/delay_bas
 681 031e 0197      		1: sbiw r24,1
 682 0320 01F4      		brne 1b
 683               	 ;  0 "" 2
 684               	/* #NOAPP */
 685               	.LBE648:
 686               	.LBE647:
 687               	.LBE646:
 688               	.LBE645:
 689               	.LBE644:
 690               	.LBE643:
 691               	.LBE642:
 692               	.LBE641:
 693               	.LM57:
 694 0322 C701      		movw r24,r14
 695               	.LVL46:
 696 0324 60E9      		ldi r22,lo8(400)
 697 0326 71E0      		ldi r23,hi8(400)
 698 0328 48E2      		ldi r20,lo8(40)
 699 032a 50E0      		ldi r21,hi8(40)
 700 032c 0E94 0000 		call _ZN2IR4highEji
 701               	.L52:
 702               	.LM58:
 703 0330 F701      		movw r30,r14
 704 0332 8081      		ld r24,Z
 705 0334 8530      		cpi r24,lo8(5)
 706 0336 01F4      		brne .L53
 707               	.LM59:
 708 0338 C701      		movw r24,r14
 709 033a 68EC      		ldi r22,lo8(13000)
 710 033c 72E3      		ldi r23,hi8(13000)
 711 033e 46E2      		ldi r20,lo8(38)
 712 0340 50E0      		ldi r21,hi8(38)
 713 0342 0E94 0000 		call _ZN2IR4highEji
 714               	.LBB649:
 715               	.LBB650:
 716               	.LBB651:
 717               	.LBB652:
 718               	.LBB653:
 719               	.LBB654:
 720               	.LBB655:
 721               	.LBB656:
 722               	.LM60:
 723 0346 80E7      		ldi r24,lo8(6000)
 724 0348 97E1      		ldi r25,hi8(6000)
 725               	.LVL47:
 726               	/* #APP */
 727               	 ;  110 "/usr/local/CrossPack-AVR-20100115/lib/gcc/avr/4.3.3/../../../../avr/include/util/delay_bas
 728 034a 0197      		1: sbiw r24,1
 729 034c 01F4      		brne 1b
 730               	 ;  0 "" 2
 731               	/* #NOAPP */
 732 034e 00E0      		ldi r16,lo8(0)
 733 0350 10E0      		ldi r17,hi8(0)
 734               	.LVL48:
 735               	.LBE656:
 736               	.LBE655:
 737               	.LBE654:
 738               	.LBE653:
 739               	.LBE652:
 740               	.LBE651:
 741               	.LBE650:
 742               	.LBE649:
 743               	.LBB657:
 744               	.LBB658:
 745               	.LBB659:
 746               	.LBB660:
 747               	.LBB661:
 748               	.LBB662:
 749               	.LBB663:
 750               	.LBB664:
 751               	.LBB665:
 752 0352 20ED      		ldi r18,lo8(2000)
 753 0354 C22E      		mov r12,r18
 754 0356 27E0      		ldi r18,hi8(2000)
 755 0358 D22E      		mov r13,r18
 756               	.L54:
 757               	.LBE665:
 758               	.LBE664:
 759               	.LBE663:
 760               	.LBE662:
 761               	.LBE661:
 762               	.LBE660:
 763               	.LBE659:
 764               	.LBE658:
 765               	.LM61:
 766 035a C701      		movw r24,r14
 767               	.LVL49:
 768 035c 68EE      		ldi r22,lo8(1000)
 769 035e 73E0      		ldi r23,hi8(1000)
 770 0360 46E2      		ldi r20,lo8(38)
 771 0362 50E0      		ldi r21,hi8(38)
 772 0364 0E94 0000 		call _ZN2IR4highEji
 773               	.LBB673:
 774               	.LBB672:
 775               	.LBB671:
 776               	.LBB670:
 777               	.LBB669:
 778               	.LBB668:
 779               	.LBB667:
 780               	.LBB666:
 781               	.LM62:
 782 0368 C601      		movw r24,r12
 783               	.LVL50:
 784               	/* #APP */
 785               	 ;  110 "/usr/local/CrossPack-AVR-20100115/lib/gcc/avr/4.3.3/../../../../avr/include/util/delay_bas
 786 036a 0197      		1: sbiw r24,1
 787 036c 01F4      		brne 1b
 788               	 ;  0 "" 2
 789               	/* #NOAPP */
 790               	.LBE666:
 791               	.LBE667:
 792               	.LBE668:
 793               	.LBE669:
 794               	.LBE670:
 795               	.LBE671:
 796               	.LBE672:
 797               	.LBE673:
 798               	.LM63:
 799 036e 0F5F      		subi r16,lo8(-(1))
 800 0370 1F4F      		sbci r17,hi8(-(1))
 801 0372 0730      		cpi r16,7
 802 0374 1105      		cpc r17,__zero_reg__
 803 0376 01F4      		brne .L54
 804               	.L53:
 805               	.LBE657:
 806               	.LM64:
 807 0378 F701      		movw r30,r14
 808 037a 8081      		ld r24,Z
 809               	.LVL51:
 810 037c 8430      		cpi r24,lo8(4)
 811 037e 01F0      		breq .+2
 812 0380 00C0      		rjmp .L55
 813               	.LBB674:
 814               	.LM65:
 815 0382 DE01      		movw r26,r28
 816 0384 5596      		adiw r26,21
 817 0386 E0E0      		ldi r30,lo8(_ZZN2IR10shutterNowEvE3C.0)
 818 0388 F0E0      		ldi r31,hi8(_ZZN2IR10shutterNowEvE3C.0)
 819 038a 80E2      		ldi r24,lo8(32)
 820               	.L56:
 821 038c 0190      		ld r0,Z+
 822 038e 0D92      		st X+,r0
 823 0390 8150      		subi r24,lo8(-(-1))
 824 0392 01F4      		brne .L56
 825               	.LM66:
 826 0394 C701      		movw r24,r14
 827 0396 6CE0      		ldi r22,lo8(8972)
 828 0398 73E2      		ldi r23,hi8(8972)
 829 039a 48E2      		ldi r20,lo8(40)
 830 039c 50E0      		ldi r21,hi8(40)
 831 039e 0E94 0000 		call _ZN2IR4highEji
 832               	.LBB675:
 833               	.LBB676:
 834               	.LBB677:
 835               	.LBB678:
 836               	.LBB679:
 837               	.LBB680:
 838               	.LBB681:
 839               	.LBB682:
 840               	.LM67:
 841 03a2 80E4      		ldi r24,lo8(8768)
 842 03a4 92E2      		ldi r25,hi8(8768)
 843               	.LVL52:
 844               	/* #APP */
 845               	 ;  110 "/usr/local/CrossPack-AVR-20100115/lib/gcc/avr/4.3.3/../../../../avr/include/util/delay_bas
 846 03a6 0197      		1: sbiw r24,1
 847 03a8 01F4      		brne 1b
 848               	 ;  0 "" 2
 849               	/* #NOAPP */
 850               	.LBE682:
 851               	.LBE681:
 852               	.LBE680:
 853               	.LBE679:
 854               	.LBE678:
 855               	.LBE677:
 856               	.LBE676:
 857               	.LBE675:
 858               	.LM68:
 859 03aa C701      		movw r24,r14
 860               	.LVL53:
 861 03ac 60E7      		ldi r22,lo8(624)
 862 03ae 72E0      		ldi r23,hi8(624)
 863 03b0 48E2      		ldi r20,lo8(40)
 864 03b2 50E0      		ldi r21,hi8(40)
 865 03b4 0E94 0000 		call _ZN2IR4highEji
 866 03b8 8E01      		movw r16,r28
 867               	.LVL54:
 868 03ba 0B5E      		subi r16,lo8(-(21))
 869 03bc 1F4F      		sbci r17,hi8(-(21))
 870               	.LBB683:
 871               	.LM69:
 872 03be 95E3      		ldi r25,lo8(53)
 873 03c0 892E      		mov r8,r25
 874 03c2 912C      		mov r9,__zero_reg__
 875 03c4 8C0E      		add r8,r28
 876 03c6 9D1E      		adc r9,r29
 877               	.LBB684:
 878               	.LBB685:
 879               	.LBB686:
 880               	.LBB687:
 881               	.LBB688:
 882               	.LBB689:
 883               	.LBB690:
 884               	.LBB691:
 885               	.LM70:
 886 03c8 80E8      		ldi r24,lo8(3200)
 887 03ca A82E      		mov r10,r24
 888 03cc 8CE0      		ldi r24,hi8(3200)
 889 03ce B82E      		mov r11,r24
 890               	.LBE691:
 891               	.LBE690:
 892               	.LBE689:
 893               	.LBE688:
 894               	.LBE687:
 895               	.LBE686:
 896               	.LBE685:
 897               	.LBE684:
 898               	.LBB699:
 899               	.LBB700:
 900               	.LBB701:
 901               	.LBB702:
 902               	.LBB703:
 903               	.LBB704:
 904               	.LBB705:
 905               	.LBB706:
 906 03d0 B0ED      		ldi r27,lo8(976)
 907 03d2 CB2E      		mov r12,r27
 908 03d4 B3E0      		ldi r27,hi8(976)
 909 03d6 DB2E      		mov r13,r27
 910 03d8 00C0      		rjmp .L57
 911               	.L60:
 912               	.LBE706:
 913               	.LBE705:
 914               	.LBE704:
 915               	.LBE703:
 916               	.LBE702:
 917               	.LBE701:
 918               	.LBE700:
 919               	.LBE699:
 920               	.LM71:
 921 03da F801      		movw r30,r16
 922 03dc 8081      		ld r24,Z
 923 03de 8823      		tst r24
 924 03e0 01F4      		brne .L58
 925               	.LBB714:
 926               	.LBB713:
 927               	.LBB712:
 928               	.LBB711:
 929               	.LBB710:
 930               	.LBB709:
 931               	.LBB708:
 932               	.LBB707:
 933               	.LM72:
 934 03e2 C601      		movw r24,r12
 935               	.LVL55:
 936 03e4 00C0      		rjmp .L85
 937               	.LVL56:
 938               	.L58:
 939               	.LBE707:
 940               	.LBE708:
 941               	.LBE709:
 942               	.LBE710:
 943               	.LBE711:
 944               	.LBE712:
 945               	.LBE713:
 946               	.LBE714:
 947               	.LBB715:
 948               	.LBB698:
 949               	.LBB697:
 950               	.LBB696:
 951               	.LBB695:
 952               	.LBB694:
 953               	.LBB693:
 954               	.LBB692:
 955 03e6 C501      		movw r24,r10
 956               	.LVL57:
 957               	.L85:
 958               	/* #APP */
 959               	 ;  110 "/usr/local/CrossPack-AVR-20100115/lib/gcc/avr/4.3.3/../../../../avr/include/util/delay_bas
 960 03e8 0197      		1: sbiw r24,1
 961 03ea 01F4      		brne 1b
 962               	 ;  0 "" 2
 963               	.LVL58:
 964               	/* #NOAPP */
 965               	.LBE692:
 966               	.LBE693:
 967               	.LBE694:
 968               	.LBE695:
 969               	.LBE696:
 970               	.LBE697:
 971               	.LBE698:
 972               	.LBE715:
 973               	.LM73:
 974 03ec C701      		movw r24,r14
 975               	.LVL59:
 976 03ee 68E5      		ldi r22,lo8(600)
 977 03f0 72E0      		ldi r23,hi8(600)
 978 03f2 48E2      		ldi r20,lo8(40)
 979 03f4 50E0      		ldi r21,hi8(40)
 980 03f6 0E94 0000 		call _ZN2IR4highEji
 981 03fa 0F5F      		subi r16,lo8(-(1))
 982 03fc 1F4F      		sbci r17,hi8(-(1))
 983               	.L57:
 984               	.LM74:
 985 03fe 0815      		cp r16,r8
 986 0400 1905      		cpc r17,r9
 987 0402 01F4      		brne .L60
 988               	.LVL60:
 989               	.L55:
 990               	.LBE683:
 991               	.LBE674:
 992               	.LM75:
 993 0404 F701      		movw r30,r14
 994 0406 8081      		ld r24,Z
 995 0408 8330      		cpi r24,lo8(3)
 996 040a 01F0      		breq .+2
 997 040c 00C0      		rjmp .L61
 998               	.LBB716:
 999               	.LM76:
 1000 040e DE01      		movw r26,r28
 1001 0410 D596      		adiw r26,53
 1002 0412 E0E0      		ldi r30,lo8(_ZZN2IR10shutterNowEvE3C.3)
 1003 0414 F0E0      		ldi r31,hi8(_ZZN2IR10shutterNowEvE3C.3)
 1004 0416 81E2      		ldi r24,lo8(33)
 1005               	.L62:
 1006 0418 0190      		ld r0,Z+
 1007 041a 0D92      		st X+,r0
 1008 041c 8150      		subi r24,lo8(-(-1))
 1009 041e 01F4      		brne .L62
 1010               	.LM77:
 1011 0420 C701      		movw r24,r14
 1012 0422 66EA      		ldi r22,lo8(3750)
 1013 0424 7EE0      		ldi r23,hi8(3750)
 1014 0426 46E2      		ldi r20,lo8(38)
 1015 0428 50E0      		ldi r21,hi8(38)
 1016 042a 0E94 0000 		call _ZN2IR4highEji
 1017               	.LBB717:
 1018               	.LBB718:
 1019               	.LBB719:
 1020               	.LBB720:
 1021               	.LBB721:
 1022               	.LBB722:
 1023               	.LBB723:
 1024               	.LBB724:
 1025               	.LM78:
 1026 042e 84EC      		ldi r24,lo8(3780)
 1027 0430 9EE0      		ldi r25,hi8(3780)
 1028               	.LVL61:
 1029               	/* #APP */
 1030               	 ;  110 "/usr/local/CrossPack-AVR-20100115/lib/gcc/avr/4.3.3/../../../../avr/include/util/delay_bas
 1031 0432 0197      		1: sbiw r24,1
 1032 0434 01F4      		brne 1b
 1033               	 ;  0 "" 2
 1034               	/* #NOAPP */
 1035 0436 8E01      		movw r16,r28
 1036               	.LVL62:
 1037 0438 0B5C      		subi r16,lo8(-(53))
 1038 043a 1F4F      		sbci r17,hi8(-(53))
 1039               	.LBE724:
 1040               	.LBE723:
 1041               	.LBE722:
 1042               	.LBE721:
 1043               	.LBE720:
 1044               	.LBE719:
 1045               	.LBE718:
 1046               	.LBE717:
 1047               	.LBB725:
 1048               	.LM79:
 1049 043c A1E2      		ldi r26,lo8(33)
 1050 043e CA2E      		mov r12,r26
 1051 0440 D12C      		mov r13,__zero_reg__
 1052 0442 C00E      		add r12,r16
 1053 0444 D11E      		adc r13,r17
 1054               	.LBB726:
 1055               	.LBB727:
 1056               	.LBB728:
 1057               	.LBB729:
 1058               	.LBB730:
 1059               	.LBB731:
 1060               	.LBB732:
 1061               	.LBB733:
 1062               	.LM80:
 1063 0446 FCE2      		ldi r31,lo8(2860)
 1064 0448 8F2E      		mov r8,r31
 1065 044a FBE0      		ldi r31,hi8(2860)
 1066 044c 9F2E      		mov r9,r31
 1067               	.LBE733:
 1068               	.LBE732:
 1069               	.LBE731:
 1070               	.LBE730:
 1071               	.LBE729:
 1072               	.LBE728:
 1073               	.LBE727:
 1074               	.LBE726:
 1075               	.LBB741:
 1076               	.LBB742:
 1077               	.LBB743:
 1078               	.LBB744:
 1079               	.LBB745:
 1080               	.LBB746:
 1081               	.LBB747:
 1082               	.LBB748:
 1083 044e EEEC      		ldi r30,lo8(974)
 1084 0450 AE2E      		mov r10,r30
 1085 0452 E3E0      		ldi r30,hi8(974)
 1086 0454 BE2E      		mov r11,r30
 1087 0456 00C0      		rjmp .L63
 1088               	.LVL63:
 1089               	.L66:
 1090               	.LBE748:
 1091               	.LBE747:
 1092               	.LBE746:
 1093               	.LBE745:
 1094               	.LBE744:
 1095               	.LBE743:
 1096               	.LBE742:
 1097               	.LBE741:
 1098               	.LM81:
 1099 0458 F801      		movw r30,r16
 1100 045a 8081      		ld r24,Z
 1101               	.LVL64:
 1102 045c 8823      		tst r24
 1103 045e 01F4      		brne .L64
 1104               	.LM82:
 1105 0460 C701      		movw r24,r14
 1106 0462 68EC      		ldi r22,lo8(456)
 1107 0464 71E0      		ldi r23,hi8(456)
 1108 0466 46E2      		ldi r20,lo8(38)
 1109 0468 50E0      		ldi r21,hi8(38)
 1110 046a 0E94 0000 		call _ZN2IR4highEji
 1111               	.LBB756:
 1112               	.LBB755:
 1113               	.LBB754:
 1114               	.LBB753:
 1115               	.LBB752:
 1116               	.LBB751:
 1117               	.LBB750:
 1118               	.LBB749:
 1119               	.LM83:
 1120 046e C501      		movw r24,r10
 1121               	.LVL65:
 1122 0470 00C0      		rjmp .L86
 1123               	.LVL66:
 1124               	.L64:
 1125               	.LBE749:
 1126               	.LBE750:
 1127               	.LBE751:
 1128               	.LBE752:
 1129               	.LBE753:
 1130               	.LBE754:
 1131               	.LBE755:
 1132               	.LBE756:
 1133               	.LM84:
 1134 0472 C701      		movw r24,r14
 1135 0474 68EC      		ldi r22,lo8(456)
 1136 0476 71E0      		ldi r23,hi8(456)
 1137 0478 46E2      		ldi r20,lo8(38)
 1138 047a 50E0      		ldi r21,hi8(38)
 1139 047c 0E94 0000 		call _ZN2IR4highEji
 1140               	.LBB757:
 1141               	.LBB740:
 1142               	.LBB739:
 1143               	.LBB738:
 1144               	.LBB737:
 1145               	.LBB736:
 1146               	.LBB735:
 1147               	.LBB734:
 1148               	.LM85:
 1149 0480 C401      		movw r24,r8
 1150               	.LVL67:
 1151               	.L86:
 1152               	/* #APP */
 1153               	 ;  110 "/usr/local/CrossPack-AVR-20100115/lib/gcc/avr/4.3.3/../../../../avr/include/util/delay_bas
 1154 0482 0197      		1: sbiw r24,1
 1155 0484 01F4      		brne 1b
 1156               	 ;  0 "" 2
 1157               	.LVL68:
 1158               	/* #NOAPP */
 1159 0486 0F5F      		subi r16,lo8(-(1))
 1160 0488 1F4F      		sbci r17,hi8(-(1))
 1161               	.LVL69:
 1162               	.L63:
 1163               	.LBE734:
 1164               	.LBE735:
 1165               	.LBE736:
 1166               	.LBE737:
 1167               	.LBE738:
 1168               	.LBE739:
 1169               	.LBE740:
 1170               	.LBE757:
 1171               	.LM86:
 1172 048a 0C15      		cp r16,r12
 1173 048c 1D05      		cpc r17,r13
 1174 048e 01F4      		brne .L66
 1175               	.LVL70:
 1176               	.L61:
 1177               	.LBE725:
 1178               	.LBE716:
 1179               	.LM87:
 1180 0490 F701      		movw r30,r14
 1181 0492 8081      		ld r24,Z
 1182               	.LVL71:
 1183 0494 8230      		cpi r24,lo8(2)
 1184 0496 01F0      		breq .+2
 1185 0498 00C0      		rjmp .L67
 1186               	.LBB758:
 1187               	.LM88:
 1188 049a DE01      		movw r26,r28
 1189 049c 1196      		adiw r26,1
 1190 049e E0E0      		ldi r30,lo8(_ZZN2IR10shutterNowEvE3C.6)
 1191 04a0 F0E0      		ldi r31,hi8(_ZZN2IR10shutterNowEvE3C.6)
 1192 04a2 84E1      		ldi r24,lo8(20)
 1193               	.L68:
 1194 04a4 0190      		ld r0,Z+
 1195 04a6 0D92      		st X+,r0
 1196 04a8 8150      		subi r24,lo8(-(-1))
 1197 04aa 01F4      		brne .L68
 1198 04ac CC24      		clr r12
 1199 04ae DD24      		clr r13
 1200               	.LVL72:
 1201               	.LBB759:
 1202               	.LBB760:
 1203               	.LBB761:
 1204               	.LBB762:
 1205               	.LBB763:
 1206               	.LBB764:
 1207               	.LBB765:
 1208               	.LBB766:
 1209               	.LBB767:
 1210               	.LM89:
 1211 04b0 74E1      		ldi r23,lo8(1300)
 1212 04b2 A72E      		mov r10,r23
 1213 04b4 75E0      		ldi r23,hi8(1300)
 1214 04b6 B72E      		mov r11,r23
 1215 04b8 2E01      		movw r4,r28
 1216 04ba 0894      		sec
 1217 04bc 411C      		adc r4,__zero_reg__
 1218 04be 511C      		adc r5,__zero_reg__
 1219               	.LBE767:
 1220               	.LBE766:
 1221               	.LBE765:
 1222               	.LBE764:
 1223               	.LBE763:
 1224               	.LBE762:
 1225               	.LBE761:
 1226               	.LBE760:
 1227               	.LBB775:
 1228               	.LM90:
 1229 04c0 65E1      		ldi r22,lo8(21)
 1230 04c2 662E      		mov r6,r22
 1231 04c4 712C      		mov r7,__zero_reg__
 1232 04c6 6C0E      		add r6,r28
 1233 04c8 7D1E      		adc r7,r29
 1234               	.LBE775:
 1235               	.LBB784:
 1236               	.LBB785:
 1237               	.LBB786:
 1238               	.LBB787:
 1239               	.LBB788:
 1240               	.LBB789:
 1241               	.LBB790:
 1242               	.LBB791:
 1243               	.LM91:
 1244 04ca 50E2      		ldi r21,lo8(20000)
 1245 04cc 852E      		mov r8,r21
 1246 04ce 5EE4      		ldi r21,hi8(20000)
 1247 04d0 952E      		mov r9,r21
 1248               	.LVL73:
 1249               	.L73:
 1250               	.LBE791:
 1251               	.LBE790:
 1252               	.LBE789:
 1253               	.LBE788:
 1254               	.LBE787:
 1255               	.LBE786:
 1256               	.LBE785:
 1257               	.LBE784:
 1258               	.LM92:
 1259 04d2 C701      		movw r24,r14
 1260               	.LVL74:
 1261 04d4 60E1      		ldi r22,lo8(2320)
 1262 04d6 79E0      		ldi r23,hi8(2320)
 1263 04d8 48E2      		ldi r20,lo8(40)
 1264 04da 50E0      		ldi r21,hi8(40)
 1265 04dc 0E94 0000 		call _ZN2IR4highEji
 1266               	.LBB799:
 1267               	.LBB774:
 1268               	.LBB773:
 1269               	.LBB772:
 1270               	.LBB771:
 1271               	.LBB770:
 1272               	.LBB769:
 1273               	.LBB768:
 1274               	.LM93:
 1275 04e0 C501      		movw r24,r10
 1276               	.LVL75:
 1277               	/* #APP */
 1278               	 ;  110 "/usr/local/CrossPack-AVR-20100115/lib/gcc/avr/4.3.3/../../../../avr/include/util/delay_bas
 1279 04e2 0197      		1: sbiw r24,1
 1280 04e4 01F4      		brne 1b
 1281               	 ;  0 "" 2
 1282               	/* #NOAPP */
 1283 04e6 8201      		movw r16,r4
 1284               	.LVL76:
 1285 04e8 00C0      		rjmp .L69
 1286               	.LVL77:
 1287               	.L72:
 1288               	.LBE768:
 1289               	.LBE769:
 1290               	.LBE770:
 1291               	.LBE771:
 1292               	.LBE772:
 1293               	.LBE773:
 1294               	.LBE774:
 1295               	.LBE799:
 1296               	.LBB800:
 1297               	.LM94:
 1298 04ea F801      		movw r30,r16
 1299 04ec 8081      		ld r24,Z
 1300               	.LVL78:
 1301 04ee 8823      		tst r24
 1302 04f0 01F4      		brne .L70
 1303               	.LM95:
 1304 04f2 C701      		movw r24,r14
 1305 04f4 6FE3      		ldi r22,lo8(575)
 1306 04f6 72E0      		ldi r23,hi8(575)
 1307 04f8 00C0      		rjmp .L87
 1308               	.L70:
 1309               	.LM96:
 1310 04fa C701      		movw r24,r14
 1311 04fc 67E9      		ldi r22,lo8(1175)
 1312 04fe 74E0      		ldi r23,hi8(1175)
 1313               	.L87:
 1314 0500 48E2      		ldi r20,lo8(40)
 1315 0502 50E0      		ldi r21,hi8(40)
 1316 0504 0E94 0000 		call _ZN2IR4highEji
 1317               	.LBB776:
 1318               	.LBB777:
 1319               	.LBB778:
 1320               	.LBB779:
 1321               	.LBB780:
 1322               	.LBB781:
 1323               	.LBB782:
 1324               	.LBB783:
 1325               	.LM97:
 1326 0508 C501      		movw r24,r10
 1327               	.LVL79:
 1328               	/* #APP */
 1329               	 ;  110 "/usr/local/CrossPack-AVR-20100115/lib/gcc/avr/4.3.3/../../../../avr/include/util/delay_bas
 1330 050a 0197      		1: sbiw r24,1
 1331 050c 01F4      		brne 1b
 1332               	 ;  0 "" 2
 1333               	/* #NOAPP */
 1334 050e 0F5F      		subi r16,lo8(-(1))
 1335 0510 1F4F      		sbci r17,hi8(-(1))
 1336               	.LVL80:
 1337               	.L69:
 1338               	.LBE783:
 1339               	.LBE782:
 1340               	.LBE781:
 1341               	.LBE780:
 1342               	.LBE779:
 1343               	.LBE778:
 1344               	.LBE777:
 1345               	.LBE776:
 1346               	.LM98:
 1347 0512 0615      		cp r16,r6
 1348 0514 1705      		cpc r17,r7
 1349 0516 01F4      		brne .L72
 1350               	.LBE800:
 1351               	.LBB801:
 1352               	.LBB798:
 1353               	.LBB797:
 1354               	.LBB796:
 1355               	.LBB795:
 1356               	.LBB794:
 1357               	.LBB793:
 1358               	.LBB792:
 1359               	.LM99:
 1360 0518 C401      		movw r24,r8
 1361               	.LVL81:
 1362               	/* #APP */
 1363               	 ;  110 "/usr/local/CrossPack-AVR-20100115/lib/gcc/avr/4.3.3/../../../../avr/include/util/delay_bas
 1364 051a 0197      		1: sbiw r24,1
 1365 051c 01F4      		brne 1b
 1366               	 ;  0 "" 2
 1367               	/* #NOAPP */
 1368               	.LBE792:
 1369               	.LBE793:
 1370               	.LBE794:
 1371               	.LBE795:
 1372               	.LBE796:
 1373               	.LBE797:
 1374               	.LBE798:
 1375               	.LBE801:
 1376               	.LM100:
 1377 051e 0894      		sec
 1378 0520 C11C      		adc r12,__zero_reg__
 1379 0522 D11C      		adc r13,__zero_reg__
 1380 0524 F3E0      		ldi r31,lo8(3)
 1381 0526 CF16      		cp r12,r31
 1382 0528 D104      		cpc r13,__zero_reg__
 1383 052a 01F4      		brne .L73
 1384               	.LVL82:
 1385               	.L67:
 1386               	.LBE759:
 1387               	.LBE758:
 1388               	.LM101:
 1389 052c F701      		movw r30,r14
 1390 052e 8081      		ld r24,Z
 1391               	.LVL83:
 1392 0530 8823      		tst r24
 1393 0532 01F4      		brne .L77
 1394               	.LM102:
 1395               	/* #APP */
 1396               	 ;  134 "src/multiCameraIrControl.cpp" 1
 1397 0534 F894      		cli
 1398               	 ;  0 "" 2
 1399               	/* #NOAPP */
 1400 0536 80E0      		ldi r24,lo8(0)
 1401 0538 90E0      		ldi r25,hi8(0)
 1402               	.LVL84:
 1403               	.LBB802:
 1404               	.LBB803:
 1405               	.LBB804:
 1406               	.LBB805:
 1407               	.LBB806:
 1408               	.LBB807:
 1409               	.LM103:
 1410 053a 3DE1      		ldi r19,lo8(29)
 1411               	.L75:
 1412               	.LBE807:
 1413               	.LBE806:
 1414               	.LBE805:
 1415               	.LBE804:
 1416               	.LBE803:
 1417               	.LM104:
 1418 053c 2F98      		cbi 37-32,7
 1419               	.LBB812:
 1420               	.LBB811:
 1421               	.LBB810:
 1422               	.LBB809:
 1423               	.LBB808:
 1424               	.LM105:
 1425 053e 232F      		mov r18,r19
 1426               	.LVL85:
 1427               	/* #APP */
 1428               	 ;  88 "/usr/local/CrossPack-AVR-20100115/lib/gcc/avr/4.3.3/../../../../avr/include/util/delay_basi
 1429 0540 2A95      		1: dec r18
 1430 0542 01F4      		brne 1b
 1431               	 ;  0 "" 2
 1432               	/* #NOAPP */
 1433               	.LBE808:
 1434               	.LBE809:
 1435               	.LBE810:
 1436               	.LBE811:
 1437               	.LBE812:
 1438               	.LM106:
 1439 0544 2F9A      		sbi 37-32,7
 1440               	.LBB813:
 1441               	.LBB814:
 1442               	.LBB815:
 1443               	.LBB816:
 1444               	.LBB817:
 1445               	.LM107:
 1446 0546 232F      		mov r18,r19
 1447               	.LVL86:
 1448               	/* #APP */
 1449               	 ;  88 "/usr/local/CrossPack-AVR-20100115/lib/gcc/avr/4.3.3/../../../../avr/include/util/delay_basi
 1450 0548 2A95      		1: dec r18
 1451 054a 01F4      		brne 1b
 1452               	 ;  0 "" 2
 1453               	/* #NOAPP */
 1454               	.LBE817:
 1455               	.LBE816:
 1456               	.LBE815:
 1457               	.LBE814:
 1458               	.LBE813:
 1459               	.LM108:
 1460 054c 0196      		adiw r24,1
 1461 054e 8031      		cpi r24,16
 1462 0550 9105      		cpc r25,__zero_reg__
 1463 0552 01F4      		brne .L75
 1464               	.LBE802:
 1465               	.LBB818:
 1466               	.LBB819:
 1467               	.LBB820:
 1468               	.LBB821:
 1469               	.LBB822:
 1470               	.LBB823:
 1471               	.LBB824:
 1472               	.LBB825:
 1473               	.LM109:
 1474 0554 84E4      		ldi r24,lo8(14660)
 1475 0556 99E3      		ldi r25,hi8(14660)
 1476               	.LVL87:
 1477               	/* #APP */
 1478               	 ;  110 "/usr/local/CrossPack-AVR-20100115/lib/gcc/avr/4.3.3/../../../../avr/include/util/delay_bas
 1479 0558 0197      		1: sbiw r24,1
 1480 055a 01F4      		brne 1b
 1481               	 ;  0 "" 2
 1482               	/* #NOAPP */
 1483 055c 80E0      		ldi r24,lo8(0)
 1484 055e 90E0      		ldi r25,hi8(0)
 1485               	.LVL88:
 1486               	.LBE825:
 1487               	.LBE824:
 1488               	.LBE823:
 1489               	.LBE822:
 1490               	.LBE821:
 1491               	.LBE820:
 1492               	.LBE819:
 1493               	.LBE818:
 1494               	.LBB826:
 1495               	.LBB827:
 1496               	.LBB828:
 1497               	.LBB829:
 1498               	.LBB830:
 1499               	.LBB831:
 1500               	.LM110:
 1501 0560 3DE1      		ldi r19,lo8(29)
 1502               	.L76:
 1503               	.LBE831:
 1504               	.LBE830:
 1505               	.LBE829:
 1506               	.LBE828:
 1507               	.LBE827:
 1508               	.LM111:
 1509 0562 2F98      		cbi 37-32,7
 1510               	.LBB836:
 1511               	.LBB835:
 1512               	.LBB834:
 1513               	.LBB833:
 1514               	.LBB832:
 1515               	.LM112:
 1516 0564 232F      		mov r18,r19
 1517               	.LVL89:
 1518               	/* #APP */
 1519               	 ;  88 "/usr/local/CrossPack-AVR-20100115/lib/gcc/avr/4.3.3/../../../../avr/include/util/delay_basi
 1520 0566 2A95      		1: dec r18
 1521 0568 01F4      		brne 1b
 1522               	 ;  0 "" 2
 1523               	/* #NOAPP */
 1524               	.LBE832:
 1525               	.LBE833:
 1526               	.LBE834:
 1527               	.LBE835:
 1528               	.LBE836:
 1529               	.LM113:
 1530 056a 2F9A      		sbi 37-32,7
 1531               	.LBB837:
 1532               	.LBB838:
 1533               	.LBB839:
 1534               	.LBB840:
 1535               	.LBB841:
 1536               	.LM114:
 1537 056c 232F      		mov r18,r19
 1538               	.LVL90:
 1539               	/* #APP */
 1540               	 ;  88 "/usr/local/CrossPack-AVR-20100115/lib/gcc/avr/4.3.3/../../../../avr/include/util/delay_basi
 1541 056e 2A95      		1: dec r18
 1542 0570 01F4      		brne 1b
 1543               	 ;  0 "" 2
 1544               	/* #NOAPP */
 1545               	.LBE841:
 1546               	.LBE840:
 1547               	.LBE839:
 1548               	.LBE838:
 1549               	.LBE837:
 1550               	.LM115:
 1551 0572 0196      		adiw r24,1
 1552 0574 8031      		cpi r24,16
 1553 0576 9105      		cpc r25,__zero_reg__
 1554 0578 01F4      		brne .L76
 1555               	.LBE826:
 1556               	.LM116:
 1557               	/* #APP */
 1558               	 ;  148 "src/multiCameraIrControl.cpp" 1
 1559 057a 7894      		sei
 1560               	 ;  0 "" 2
 1561               	/* #NOAPP */
 1562               	.L77:
 1563               	/* epilogue start */
 1564               	.LBE624:
 1565               	.LM117:
 1566 057c CB5A      		subi r28,lo8(-(85))
 1567 057e DF4F      		sbci r29,hi8(-(85))
 1568 0580 0FB6      		in __tmp_reg__,__SREG__
 1569 0582 F894      		cli
 1570 0584 DEBF      		out __SP_H__,r29
 1571 0586 0FBE      		out __SREG__,__tmp_reg__
 1572 0588 CDBF      		out __SP_L__,r28
 1573 058a CF91      		pop r28
 1574 058c DF91      		pop r29
 1575 058e 1F91      		pop r17
 1576 0590 0F91      		pop r16
 1577               	.LVL91:
 1578 0592 FF90      		pop r15
 1579 0594 EF90      		pop r14
 1580               	.LVL92:
 1581 0596 DF90      		pop r13
 1582 0598 CF90      		pop r12
 1583               	.LVL93:
 1584 059a BF90      		pop r11
 1585 059c AF90      		pop r10
 1586 059e 9F90      		pop r9
 1587 05a0 8F90      		pop r8
 1588 05a2 7F90      		pop r7
 1589 05a4 6F90      		pop r6
 1590 05a6 5F90      		pop r5
 1591 05a8 4F90      		pop r4
 1592 05aa 0895      		ret
 1593               	.LFE10:
 1595               	.global	_ZN2IR14shutterDelayedEv
 1597               	_ZN2IR14shutterDelayedEv:
 1598               	.LFB11:
 1599               	.LM118:
 1600               	.LVL94:
 1601 05ac 4F92      		push r4
 1602 05ae 5F92      		push r5
 1603 05b0 6F92      		push r6
 1604 05b2 7F92      		push r7
 1605 05b4 8F92      		push r8
 1606 05b6 9F92      		push r9
 1607 05b8 AF92      		push r10
 1608 05ba BF92      		push r11
 1609 05bc CF92      		push r12
 1610 05be DF92      		push r13
 1611 05c0 EF92      		push r14
 1612 05c2 FF92      		push r15
 1613 05c4 0F93      		push r16
 1614 05c6 1F93      		push r17
 1615 05c8 DF93      		push r29
 1616 05ca CF93      		push r28
 1617 05cc CDB7      		in r28,__SP_L__
 1618 05ce DEB7      		in r29,__SP_H__
 1619 05d0 E597      		sbiw r28,53
 1620 05d2 0FB6      		in __tmp_reg__,__SREG__
 1621 05d4 F894      		cli
 1622 05d6 DEBF      		out __SP_H__,r29
 1623 05d8 0FBE      		out __SREG__,__tmp_reg__
 1624 05da CDBF      		out __SP_L__,r28
 1625               	/* prologue: function */
 1626               	/* frame size = 53 */
 1627 05dc 7C01      		movw r14,r24
 1628               	.LBB842:
 1629               	.LM119:
 1630 05de FC01      		movw r30,r24
 1631 05e0 8081      		ld r24,Z
 1632               	.LVL95:
 1633 05e2 8330      		cpi r24,lo8(3)
 1634 05e4 01F0      		breq .+2
 1635 05e6 00C0      		rjmp .L89
 1636               	.LBB843:
 1637               	.LM120:
 1638 05e8 DE01      		movw r26,r28
 1639 05ea 5596      		adiw r26,21
 1640 05ec E0E0      		ldi r30,lo8(_ZZN2IR14shutterDelayedEvE3C.9)
 1641 05ee F0E0      		ldi r31,hi8(_ZZN2IR14shutterDelayedEvE3C.9)
 1642 05f0 81E2      		ldi r24,lo8(33)
 1643               	.L90:
 1644 05f2 0190      		ld r0,Z+
 1645 05f4 0D92      		st X+,r0
 1646 05f6 8150      		subi r24,lo8(-(-1))
 1647 05f8 01F4      		brne .L90
 1648               	.LM121:
 1649 05fa C701      		movw r24,r14
 1650 05fc 66EA      		ldi r22,lo8(3750)
 1651 05fe 7EE0      		ldi r23,hi8(3750)
 1652 0600 46E2      		ldi r20,lo8(38)
 1653 0602 50E0      		ldi r21,hi8(38)
 1654 0604 0E94 0000 		call _ZN2IR4highEji
 1655               	.LBB844:
 1656               	.LBB845:
 1657               	.LBB846:
 1658               	.LBB847:
 1659               	.LBB848:
 1660               	.LBB849:
 1661               	.LBB850:
 1662               	.LBB851:
 1663               	.LM122:
 1664 0608 84EC      		ldi r24,lo8(3780)
 1665 060a 9EE0      		ldi r25,hi8(3780)
 1666               	.LVL96:
 1667               	/* #APP */
 1668               	 ;  110 "/usr/local/CrossPack-AVR-20100115/lib/gcc/avr/4.3.3/../../../../avr/include/util/delay_bas
 1669 060c 0197      		1: sbiw r24,1
 1670 060e 01F4      		brne 1b
 1671               	 ;  0 "" 2
 1672               	/* #NOAPP */
 1673 0610 8E01      		movw r16,r28
 1674 0612 0B5E      		subi r16,lo8(-(21))
 1675 0614 1F4F      		sbci r17,hi8(-(21))
 1676               	.LBE851:
 1677               	.LBE850:
 1678               	.LBE849:
 1679               	.LBE848:
 1680               	.LBE847:
 1681               	.LBE846:
 1682               	.LBE845:
 1683               	.LBE844:
 1684               	.LBB852:
 1685               	.LM123:
 1686 0616 E6E3      		ldi r30,lo8(54)
 1687 0618 8E2E      		mov r8,r30
 1688 061a 912C      		mov r9,__zero_reg__
 1689 061c 8C0E      		add r8,r28
 1690 061e 9D1E      		adc r9,r29
 1691               	.LBB853:
 1692               	.LBB854:
 1693               	.LBB855:
 1694               	.LBB856:
 1695               	.LBB857:
 1696               	.LBB858:
 1697               	.LBB859:
 1698               	.LBB860:
 1699               	.LM124:
 1700 0620 7CE2      		ldi r23,lo8(2860)
 1701 0622 A72E      		mov r10,r23
 1702 0624 7BE0      		ldi r23,hi8(2860)
 1703 0626 B72E      		mov r11,r23
 1704               	.LBE860:
 1705               	.LBE859:
 1706               	.LBE858:
 1707               	.LBE857:
 1708               	.LBE856:
 1709               	.LBE855:
 1710               	.LBE854:
 1711               	.LBE853:
 1712               	.LBB868:
 1713               	.LBB869:
 1714               	.LBB870:
 1715               	.LBB871:
 1716               	.LBB872:
 1717               	.LBB873:
 1718               	.LBB874:
 1719               	.LBB875:
 1720 0628 6EEC      		ldi r22,lo8(974)
 1721 062a C62E      		mov r12,r22
 1722 062c 63E0      		ldi r22,hi8(974)
 1723 062e D62E      		mov r13,r22
 1724 0630 00C0      		rjmp .L91
 1725               	.LVL97:
 1726               	.L94:
 1727               	.LBE875:
 1728               	.LBE874:
 1729               	.LBE873:
 1730               	.LBE872:
 1731               	.LBE871:
 1732               	.LBE870:
 1733               	.LBE869:
 1734               	.LBE868:
 1735               	.LM125:
 1736 0632 F801      		movw r30,r16
 1737 0634 8081      		ld r24,Z
 1738               	.LVL98:
 1739 0636 8823      		tst r24
 1740 0638 01F4      		brne .L92
 1741               	.LM126:
 1742 063a C701      		movw r24,r14
 1743 063c 68EC      		ldi r22,lo8(456)
 1744 063e 71E0      		ldi r23,hi8(456)
 1745 0640 46E2      		ldi r20,lo8(38)
 1746 0642 50E0      		ldi r21,hi8(38)
 1747 0644 0E94 0000 		call _ZN2IR4highEji
 1748               	.LBB883:
 1749               	.LBB882:
 1750               	.LBB881:
 1751               	.LBB880:
 1752               	.LBB879:
 1753               	.LBB878:
 1754               	.LBB877:
 1755               	.LBB876:
 1756               	.LM127:
 1757 0648 C601      		movw r24,r12
 1758               	.LVL99:
 1759 064a 00C0      		rjmp .L111
 1760               	.LVL100:
 1761               	.L92:
 1762               	.LBE876:
 1763               	.LBE877:
 1764               	.LBE878:
 1765               	.LBE879:
 1766               	.LBE880:
 1767               	.LBE881:
 1768               	.LBE882:
 1769               	.LBE883:
 1770               	.LM128:
 1771 064c C701      		movw r24,r14
 1772 064e 68EC      		ldi r22,lo8(456)
 1773 0650 71E0      		ldi r23,hi8(456)
 1774 0652 46E2      		ldi r20,lo8(38)
 1775 0654 50E0      		ldi r21,hi8(38)
 1776 0656 0E94 0000 		call _ZN2IR4highEji
 1777               	.LBB884:
 1778               	.LBB867:
 1779               	.LBB866:
 1780               	.LBB865:
 1781               	.LBB864:
 1782               	.LBB863:
 1783               	.LBB862:
 1784               	.LBB861:
 1785               	.LM129:
 1786 065a C501      		movw r24,r10
 1787               	.LVL101:
 1788               	.L111:
 1789               	/* #APP */
 1790               	 ;  110 "/usr/local/CrossPack-AVR-20100115/lib/gcc/avr/4.3.3/../../../../avr/include/util/delay_bas
 1791 065c 0197      		1: sbiw r24,1
 1792 065e 01F4      		brne 1b
 1793               	 ;  0 "" 2
 1794               	.LVL102:
 1795               	/* #NOAPP */
 1796 0660 0F5F      		subi r16,lo8(-(1))
 1797 0662 1F4F      		sbci r17,hi8(-(1))
 1798               	.LVL103:
 1799               	.L91:
 1800               	.LBE861:
 1801               	.LBE862:
 1802               	.LBE863:
 1803               	.LBE864:
 1804               	.LBE865:
 1805               	.LBE866:
 1806               	.LBE867:
 1807               	.LBE884:
 1808               	.LM130:
 1809 0664 0815      		cp r16,r8
 1810 0666 1905      		cpc r17,r9
 1811 0668 01F4      		brne .L94
 1812               	.L89:
 1813               	.LBE852:
 1814               	.LBE843:
 1815               	.LM131:
 1816 066a F701      		movw r30,r14
 1817 066c 8081      		ld r24,Z
 1818               	.LVL104:
 1819 066e 8230      		cpi r24,lo8(2)
 1820 0670 01F0      		breq .+2
 1821 0672 00C0      		rjmp .L95
 1822               	.LBB885:
 1823               	.LM132:
 1824 0674 DE01      		movw r26,r28
 1825 0676 1196      		adiw r26,1
 1826 0678 E0E0      		ldi r30,lo8(_ZZN2IR14shutterDelayedEvE4C.12)
 1827 067a F0E0      		ldi r31,hi8(_ZZN2IR14shutterDelayedEvE4C.12)
 1828 067c 84E1      		ldi r24,lo8(20)
 1829               	.L96:
 1830 067e 0190      		ld r0,Z+
 1831 0680 0D92      		st X+,r0
 1832 0682 8150      		subi r24,lo8(-(-1))
 1833 0684 01F4      		brne .L96
 1834 0686 CC24      		clr r12
 1835 0688 DD24      		clr r13
 1836               	.LVL105:
 1837               	.LBB886:
 1838               	.LBB887:
 1839               	.LBB888:
 1840               	.LBB889:
 1841               	.LBB890:
 1842               	.LBB891:
 1843               	.LBB892:
 1844               	.LBB893:
 1845               	.LBB894:
 1846               	.LM133:
 1847 068a 54E1      		ldi r21,lo8(1300)
 1848 068c A52E      		mov r10,r21
 1849 068e 55E0      		ldi r21,hi8(1300)
 1850 0690 B52E      		mov r11,r21
 1851 0692 2E01      		movw r4,r28
 1852 0694 0894      		sec
 1853 0696 411C      		adc r4,__zero_reg__
 1854 0698 511C      		adc r5,__zero_reg__
 1855               	.LBE894:
 1856               	.LBE893:
 1857               	.LBE892:
 1858               	.LBE891:
 1859               	.LBE890:
 1860               	.LBE889:
 1861               	.LBE888:
 1862               	.LBE887:
 1863               	.LBB902:
 1864               	.LM134:
 1865 069a 45E1      		ldi r20,lo8(21)
 1866 069c 642E      		mov r6,r20
 1867 069e 712C      		mov r7,__zero_reg__
 1868 06a0 6C0E      		add r6,r28
 1869 06a2 7D1E      		adc r7,r29
 1870               	.LBE902:
 1871               	.LBB911:
 1872               	.LBB912:
 1873               	.LBB913:
 1874               	.LBB914:
 1875               	.LBB915:
 1876               	.LBB916:
 1877               	.LBB917:
 1878               	.LBB918:
 1879               	.LM135:
 1880 06a4 30E2      		ldi r19,lo8(20000)
 1881 06a6 832E      		mov r8,r19
 1882 06a8 3EE4      		ldi r19,hi8(20000)
 1883 06aa 932E      		mov r9,r19
 1884               	.LVL106:
 1885               	.L101:
 1886               	.LBE918:
 1887               	.LBE917:
 1888               	.LBE916:
 1889               	.LBE915:
 1890               	.LBE914:
 1891               	.LBE913:
 1892               	.LBE912:
 1893               	.LBE911:
 1894               	.LM136:
 1895 06ac C701      		movw r24,r14
 1896               	.LVL107:
 1897 06ae 60E1      		ldi r22,lo8(2320)
 1898 06b0 79E0      		ldi r23,hi8(2320)
 1899 06b2 48E2      		ldi r20,lo8(40)
 1900 06b4 50E0      		ldi r21,hi8(40)
 1901 06b6 0E94 0000 		call _ZN2IR4highEji
 1902               	.LBB926:
 1903               	.LBB901:
 1904               	.LBB900:
 1905               	.LBB899:
 1906               	.LBB898:
 1907               	.LBB897:
 1908               	.LBB896:
 1909               	.LBB895:
 1910               	.LM137:
 1911 06ba C501      		movw r24,r10
 1912               	.LVL108:
 1913               	/* #APP */
 1914               	 ;  110 "/usr/local/CrossPack-AVR-20100115/lib/gcc/avr/4.3.3/../../../../avr/include/util/delay_bas
 1915 06bc 0197      		1: sbiw r24,1
 1916 06be 01F4      		brne 1b
 1917               	 ;  0 "" 2
 1918               	/* #NOAPP */
 1919 06c0 8201      		movw r16,r4
 1920 06c2 00C0      		rjmp .L97
 1921               	.LVL109:
 1922               	.L100:
 1923               	.LBE895:
 1924               	.LBE896:
 1925               	.LBE897:
 1926               	.LBE898:
 1927               	.LBE899:
 1928               	.LBE900:
 1929               	.LBE901:
 1930               	.LBE926:
 1931               	.LBB927:
 1932               	.LM138:
 1933 06c4 F801      		movw r30,r16
 1934 06c6 8081      		ld r24,Z
 1935               	.LVL110:
 1936 06c8 8823      		tst r24
 1937 06ca 01F4      		brne .L98
 1938               	.LM139:
 1939 06cc C701      		movw r24,r14
 1940 06ce 6FE3      		ldi r22,lo8(575)
 1941 06d0 72E0      		ldi r23,hi8(575)
 1942 06d2 00C0      		rjmp .L112
 1943               	.L98:
 1944               	.LM140:
 1945 06d4 C701      		movw r24,r14
 1946 06d6 67E9      		ldi r22,lo8(1175)
 1947 06d8 74E0      		ldi r23,hi8(1175)
 1948               	.L112:
 1949 06da 48E2      		ldi r20,lo8(40)
 1950 06dc 50E0      		ldi r21,hi8(40)
 1951 06de 0E94 0000 		call _ZN2IR4highEji
 1952               	.LBB903:
 1953               	.LBB904:
 1954               	.LBB905:
 1955               	.LBB906:
 1956               	.LBB907:
 1957               	.LBB908:
 1958               	.LBB909:
 1959               	.LBB910:
 1960               	.LM141:
 1961 06e2 C501      		movw r24,r10
 1962               	.LVL111:
 1963               	/* #APP */
 1964               	 ;  110 "/usr/local/CrossPack-AVR-20100115/lib/gcc/avr/4.3.3/../../../../avr/include/util/delay_bas
 1965 06e4 0197      		1: sbiw r24,1
 1966 06e6 01F4      		brne 1b
 1967               	 ;  0 "" 2
 1968               	/* #NOAPP */
 1969 06e8 0F5F      		subi r16,lo8(-(1))
 1970 06ea 1F4F      		sbci r17,hi8(-(1))
 1971               	.LVL112:
 1972               	.L97:
 1973               	.LBE910:
 1974               	.LBE909:
 1975               	.LBE908:
 1976               	.LBE907:
 1977               	.LBE906:
 1978               	.LBE905:
 1979               	.LBE904:
 1980               	.LBE903:
 1981               	.LM142:
 1982 06ec 0615      		cp r16,r6
 1983 06ee 1705      		cpc r17,r7
 1984 06f0 01F4      		brne .L100
 1985               	.LBE927:
 1986               	.LBB928:
 1987               	.LBB925:
 1988               	.LBB924:
 1989               	.LBB923:
 1990               	.LBB922:
 1991               	.LBB921:
 1992               	.LBB920:
 1993               	.LBB919:
 1994               	.LM143:
 1995 06f2 C401      		movw r24,r8
 1996               	.LVL113:
 1997               	/* #APP */
 1998               	 ;  110 "/usr/local/CrossPack-AVR-20100115/lib/gcc/avr/4.3.3/../../../../avr/include/util/delay_bas
 1999 06f4 0197      		1: sbiw r24,1
 2000 06f6 01F4      		brne 1b
 2001               	 ;  0 "" 2
 2002               	/* #NOAPP */
 2003               	.LBE919:
 2004               	.LBE920:
 2005               	.LBE921:
 2006               	.LBE922:
 2007               	.LBE923:
 2008               	.LBE924:
 2009               	.LBE925:
 2010               	.LBE928:
 2011               	.LM144:
 2012 06f8 0894      		sec
 2013 06fa C11C      		adc r12,__zero_reg__
 2014 06fc D11C      		adc r13,__zero_reg__
 2015 06fe F3E0      		ldi r31,lo8(3)
 2016 0700 CF16      		cp r12,r31
 2017 0702 D104      		cpc r13,__zero_reg__
 2018 0704 01F4      		brne .L101
 2019               	.L95:
 2020               	.LBE886:
 2021               	.LBE885:
 2022               	.LM145:
 2023 0706 F701      		movw r30,r14
 2024 0708 8081      		ld r24,Z
 2025               	.LVL114:
 2026 070a 8823      		tst r24
 2027 070c 01F4      		brne .L105
 2028               	.LM146:
 2029               	/* #APP */
 2030               	 ;  195 "src/multiCameraIrControl.cpp" 1
 2031 070e F894      		cli
 2032               	 ;  0 "" 2
 2033               	/* #NOAPP */
 2034 0710 80E0      		ldi r24,lo8(0)
 2035 0712 90E0      		ldi r25,hi8(0)
 2036               	.LVL115:
 2037               	.LBB929:
 2038               	.LBB930:
 2039               	.LBB931:
 2040               	.LBB932:
 2041               	.LBB933:
 2042               	.LBB934:
 2043               	.LM147:
 2044 0714 3DE1      		ldi r19,lo8(29)
 2045               	.L103:
 2046               	.LBE934:
 2047               	.LBE933:
 2048               	.LBE932:
 2049               	.LBE931:
 2050               	.LBE930:
 2051               	.LM148:
 2052 0716 2F98      		cbi 37-32,7
 2053               	.LBB939:
 2054               	.LBB938:
 2055               	.LBB937:
 2056               	.LBB936:
 2057               	.LBB935:
 2058               	.LM149:
 2059 0718 232F      		mov r18,r19
 2060               	.LVL116:
 2061               	/* #APP */
 2062               	 ;  88 "/usr/local/CrossPack-AVR-20100115/lib/gcc/avr/4.3.3/../../../../avr/include/util/delay_basi
 2063 071a 2A95      		1: dec r18
 2064 071c 01F4      		brne 1b
 2065               	 ;  0 "" 2
 2066               	/* #NOAPP */
 2067               	.LBE935:
 2068               	.LBE936:
 2069               	.LBE937:
 2070               	.LBE938:
 2071               	.LBE939:
 2072               	.LM150:
 2073 071e 2F9A      		sbi 37-32,7
 2074               	.LBB940:
 2075               	.LBB941:
 2076               	.LBB942:
 2077               	.LBB943:
 2078               	.LBB944:
 2079               	.LM151:
 2080 0720 232F      		mov r18,r19
 2081               	.LVL117:
 2082               	/* #APP */
 2083               	 ;  88 "/usr/local/CrossPack-AVR-20100115/lib/gcc/avr/4.3.3/../../../../avr/include/util/delay_basi
 2084 0722 2A95      		1: dec r18
 2085 0724 01F4      		brne 1b
 2086               	 ;  0 "" 2
 2087               	/* #NOAPP */
 2088               	.LBE944:
 2089               	.LBE943:
 2090               	.LBE942:
 2091               	.LBE941:
 2092               	.LBE940:
 2093               	.LM152:
 2094 0726 0196      		adiw r24,1
 2095 0728 8031      		cpi r24,16
 2096 072a 9105      		cpc r25,__zero_reg__
 2097 072c 01F4      		brne .L103
 2098               	.LBE929:
 2099               	.LBB945:
 2100               	.LBB946:
 2101               	.LBB947:
 2102               	.LBB948:
 2103               	.LBB949:
 2104               	.LBB950:
 2105               	.LBB951:
 2106               	.LBB952:
 2107               	.LM153:
 2108 072e 80EE      		ldi r24,lo8(10720)
 2109 0730 99E2      		ldi r25,hi8(10720)
 2110               	.LVL118:
 2111               	/* #APP */
 2112               	 ;  110 "/usr/local/CrossPack-AVR-20100115/lib/gcc/avr/4.3.3/../../../../avr/include/util/delay_bas
 2113 0732 0197      		1: sbiw r24,1
 2114 0734 01F4      		brne 1b
 2115               	 ;  0 "" 2
 2116               	/* #NOAPP */
 2117 0736 80E0      		ldi r24,lo8(0)
 2118 0738 90E0      		ldi r25,hi8(0)
 2119               	.LVL119:
 2120               	.LBE952:
 2121               	.LBE951:
 2122               	.LBE950:
 2123               	.LBE949:
 2124               	.LBE948:
 2125               	.LBE947:
 2126               	.LBE946:
 2127               	.LBE945:
 2128               	.LBB953:
 2129               	.LBB954:
 2130               	.LBB955:
 2131               	.LBB956:
 2132               	.LBB957:
 2133               	.LBB958:
 2134               	.LM154:
 2135 073a 3DE1      		ldi r19,lo8(29)
 2136               	.L104:
 2137               	.LBE958:
 2138               	.LBE957:
 2139               	.LBE956:
 2140               	.LBE955:
 2141               	.LBE954:
 2142               	.LM155:
 2143 073c 2F98      		cbi 37-32,7
 2144               	.LBB963:
 2145               	.LBB962:
 2146               	.LBB961:
 2147               	.LBB960:
 2148               	.LBB959:
 2149               	.LM156:
 2150 073e 232F      		mov r18,r19
 2151               	.LVL120:
 2152               	/* #APP */
 2153               	 ;  88 "/usr/local/CrossPack-AVR-20100115/lib/gcc/avr/4.3.3/../../../../avr/include/util/delay_basi
 2154 0740 2A95      		1: dec r18
 2155 0742 01F4      		brne 1b
 2156               	 ;  0 "" 2
 2157               	/* #NOAPP */
 2158               	.LBE959:
 2159               	.LBE960:
 2160               	.LBE961:
 2161               	.LBE962:
 2162               	.LBE963:
 2163               	.LM157:
 2164 0744 2F9A      		sbi 37-32,7
 2165               	.LBB964:
 2166               	.LBB965:
 2167               	.LBB966:
 2168               	.LBB967:
 2169               	.LBB968:
 2170               	.LM158:
 2171 0746 232F      		mov r18,r19
 2172               	.LVL121:
 2173               	/* #APP */
 2174               	 ;  88 "/usr/local/CrossPack-AVR-20100115/lib/gcc/avr/4.3.3/../../../../avr/include/util/delay_basi
 2175 0748 2A95      		1: dec r18
 2176 074a 01F4      		brne 1b
 2177               	 ;  0 "" 2
 2178               	/* #NOAPP */
 2179               	.LBE968:
 2180               	.LBE967:
 2181               	.LBE966:
 2182               	.LBE965:
 2183               	.LBE964:
 2184               	.LM159:
 2185 074c 0196      		adiw r24,1
 2186 074e 8031      		cpi r24,16
 2187 0750 9105      		cpc r25,__zero_reg__
 2188 0752 01F4      		brne .L104
 2189               	.LBE953:
 2190               	.LM160:
 2191               	/* #APP */
 2192               	 ;  209 "src/multiCameraIrControl.cpp" 1
 2193 0754 7894      		sei
 2194               	 ;  0 "" 2
 2195               	/* #NOAPP */
 2196               	.L105:
 2197               	/* epilogue start */
 2198               	.LBE842:
 2199               	.LM161:
 2200 0756 E596      		adiw r28,53
 2201 0758 0FB6      		in __tmp_reg__,__SREG__
 2202 075a F894      		cli
 2203 075c DEBF      		out __SP_H__,r29
 2204 075e 0FBE      		out __SREG__,__tmp_reg__
 2205 0760 CDBF      		out __SP_L__,r28
 2206 0762 CF91      		pop r28
 2207 0764 DF91      		pop r29
 2208 0766 1F91      		pop r17
 2209 0768 0F91      		pop r16
 2210 076a FF90      		pop r15
 2211 076c EF90      		pop r14
 2212               	.LVL122:
 2213 076e DF90      		pop r13
 2214 0770 CF90      		pop r12
 2215               	.LVL123:
 2216 0772 BF90      		pop r11
 2217 0774 AF90      		pop r10
 2218 0776 9F90      		pop r9
 2219 0778 8F90      		pop r8
 2220 077a 7F90      		pop r7
 2221 077c 6F90      		pop r6
 2222 077e 5F90      		pop r5
 2223 0780 4F90      		pop r4
 2224 0782 0895      		ret
 2225               	.LFE11:
 2227               	.global	_ZN2IR6zoomInEj
 2229               	_ZN2IR6zoomInEj:
 2230               	.LFB12:
 2231               	.LM162:
 2232               	.LVL124:
 2233 0784 6F92      		push r6
 2234 0786 7F92      		push r7
 2235 0788 8F92      		push r8
 2236 078a 9F92      		push r9
 2237 078c AF92      		push r10
 2238 078e BF92      		push r11
 2239 0790 CF92      		push r12
 2240 0792 DF92      		push r13
 2241 0794 EF92      		push r14
 2242 0796 FF92      		push r15
 2243 0798 0F93      		push r16
 2244 079a 1F93      		push r17
 2245 079c DF93      		push r29
 2246 079e CF93      		push r28
 2247 07a0 CDB7      		in r28,__SP_L__
 2248 07a2 DEB7      		in r29,__SP_H__
 2249 07a4 A097      		sbiw r28,32
 2250 07a6 0FB6      		in __tmp_reg__,__SREG__
 2251 07a8 F894      		cli
 2252 07aa DEBF      		out __SP_H__,r29
 2253 07ac 0FBE      		out __SREG__,__tmp_reg__
 2254 07ae CDBF      		out __SP_L__,r28
 2255               	/* prologue: function */
 2256               	/* frame size = 32 */
 2257 07b0 7C01      		movw r14,r24
 2258 07b2 762E      		mov r7,r22
 2259 07b4 672E      		mov r6,r23
 2260               	.LVL125:
 2261               	.LBB969:
 2262               	.LM163:
 2263 07b6 FC01      		movw r30,r24
 2264 07b8 8081      		ld r24,Z
 2265               	.LVL126:
 2266 07ba 8430      		cpi r24,lo8(4)
 2267 07bc 01F0      		breq .+2
 2268 07be 00C0      		rjmp .L125
 2269               	.LVL127:
 2270               	.LBB970:
 2271               	.LM164:
 2272 07c0 DE01      		movw r26,r28
 2273 07c2 1196      		adiw r26,1
 2274 07c4 E0E0      		ldi r30,lo8(_ZZN2IR6zoomInEjE4C.15)
 2275 07c6 F0E0      		ldi r31,hi8(_ZZN2IR6zoomInEjE4C.15)
 2276 07c8 80E2      		ldi r24,lo8(32)
 2277               	.L115:
 2278 07ca 0190      		ld r0,Z+
 2279 07cc 0D92      		st X+,r0
 2280 07ce 8150      		subi r24,lo8(-(-1))
 2281 07d0 01F4      		brne .L115
 2282               	.LM165:
 2283 07d2 C701      		movw r24,r14
 2284 07d4 68E2      		ldi r22,lo8(9000)
 2285 07d6 73E2      		ldi r23,hi8(9000)
 2286 07d8 48E2      		ldi r20,lo8(40)
 2287 07da 50E0      		ldi r21,hi8(40)
 2288 07dc 0E94 0000 		call _ZN2IR4highEji
 2289               	.LBB971:
 2290               	.LBB972:
 2291               	.LBB973:
 2292               	.LBB974:
 2293               	.LBB975:
 2294               	.LBB976:
 2295               	.LBB977:
 2296               	.LBB978:
 2297               	.LM166:
 2298 07e0 88E2      		ldi r24,lo8(9000)
 2299 07e2 93E2      		ldi r25,hi8(9000)
 2300               	.LVL128:
 2301               	/* #APP */
 2302               	 ;  110 "/usr/local/CrossPack-AVR-20100115/lib/gcc/avr/4.3.3/../../../../avr/include/util/delay_bas
 2303 07e4 0197      		1: sbiw r24,1
 2304 07e6 01F4      		brne 1b
 2305               	 ;  0 "" 2
 2306               	/* #NOAPP */
 2307               	.LBE978:
 2308               	.LBE977:
 2309               	.LBE976:
 2310               	.LBE975:
 2311               	.LBE974:
 2312               	.LBE973:
 2313               	.LBE972:
 2314               	.LBE971:
 2315               	.LM167:
 2316 07e8 C701      		movw r24,r14
 2317               	.LVL129:
 2318 07ea 64EF      		ldi r22,lo8(500)
 2319 07ec 71E0      		ldi r23,hi8(500)
 2320 07ee 48E2      		ldi r20,lo8(40)
 2321 07f0 50E0      		ldi r21,hi8(40)
 2322 07f2 0E94 0000 		call _ZN2IR4highEji
 2323 07f6 8E01      		movw r16,r28
 2324 07f8 0F5F      		subi r16,lo8(-(1))
 2325 07fa 1F4F      		sbci r17,hi8(-(1))
 2326               	.LBB979:
 2327               	.LM168:
 2328 07fc 91E2      		ldi r25,lo8(33)
 2329 07fe 892E      		mov r8,r25
 2330 0800 912C      		mov r9,__zero_reg__
 2331 0802 8C0E      		add r8,r28
 2332 0804 9D1E      		adc r9,r29
 2333               	.LBB980:
 2334               	.LBB981:
 2335               	.LBB982:
 2336               	.LBB983:
 2337               	.LBB984:
 2338               	.LBB985:
 2339               	.LBB986:
 2340               	.LBB987:
 2341               	.LM169:
 2342 0806 88EB      		ldi r24,lo8(3000)
 2343 0808 A82E      		mov r10,r24
 2344 080a 8BE0      		ldi r24,hi8(3000)
 2345 080c B82E      		mov r11,r24
 2346               	.LBE987:
 2347               	.LBE986:
 2348               	.LBE985:
 2349               	.LBE984:
 2350               	.LBE983:
 2351               	.LBE982:
 2352               	.LBE981:
 2353               	.LBE980:
 2354               	.LBB995:
 2355               	.LBB996:
 2356               	.LBB997:
 2357               	.LBB998:
 2358               	.LBB999:
 2359               	.LBB1000:
 2360               	.LBB1001:
 2361               	.LBB1002:
 2362 080e B8EE      		ldi r27,lo8(1000)
 2363 0810 CB2E      		mov r12,r27
 2364 0812 B3E0      		ldi r27,hi8(1000)
 2365 0814 DB2E      		mov r13,r27
 2366 0816 00C0      		rjmp .L116
 2367               	.L119:
 2368               	.LBE1002:
 2369               	.LBE1001:
 2370               	.LBE1000:
 2371               	.LBE999:
 2372               	.LBE998:
 2373               	.LBE997:
 2374               	.LBE996:
 2375               	.LBE995:
 2376               	.LM170:
 2377 0818 F801      		movw r30,r16
 2378 081a 8081      		ld r24,Z
 2379 081c 8823      		tst r24
 2380 081e 01F4      		brne .L117
 2381               	.LBB1010:
 2382               	.LBB1009:
 2383               	.LBB1008:
 2384               	.LBB1007:
 2385               	.LBB1006:
 2386               	.LBB1005:
 2387               	.LBB1004:
 2388               	.LBB1003:
 2389               	.LM171:
 2390 0820 C601      		movw r24,r12
 2391               	.LVL130:
 2392 0822 00C0      		rjmp .L129
 2393               	.LVL131:
 2394               	.L117:
 2395               	.LBE1003:
 2396               	.LBE1004:
 2397               	.LBE1005:
 2398               	.LBE1006:
 2399               	.LBE1007:
 2400               	.LBE1008:
 2401               	.LBE1009:
 2402               	.LBE1010:
 2403               	.LBB1011:
 2404               	.LBB994:
 2405               	.LBB993:
 2406               	.LBB992:
 2407               	.LBB991:
 2408               	.LBB990:
 2409               	.LBB989:
 2410               	.LBB988:
 2411 0824 C501      		movw r24,r10
 2412               	.LVL132:
 2413               	.L129:
 2414               	/* #APP */
 2415               	 ;  110 "/usr/local/CrossPack-AVR-20100115/lib/gcc/avr/4.3.3/../../../../avr/include/util/delay_bas
 2416 0826 0197      		1: sbiw r24,1
 2417 0828 01F4      		brne 1b
 2418               	 ;  0 "" 2
 2419               	.LVL133:
 2420               	/* #NOAPP */
 2421               	.LBE988:
 2422               	.LBE989:
 2423               	.LBE990:
 2424               	.LBE991:
 2425               	.LBE992:
 2426               	.LBE993:
 2427               	.LBE994:
 2428               	.LBE1011:
 2429               	.LM172:
 2430 082a C701      		movw r24,r14
 2431               	.LVL134:
 2432 082c 64EF      		ldi r22,lo8(500)
 2433 082e 71E0      		ldi r23,hi8(500)
 2434 0830 48E2      		ldi r20,lo8(40)
 2435 0832 50E0      		ldi r21,hi8(40)
 2436 0834 0E94 0000 		call _ZN2IR4highEji
 2437 0838 0F5F      		subi r16,lo8(-(1))
 2438 083a 1F4F      		sbci r17,hi8(-(1))
 2439               	.L116:
 2440               	.LM173:
 2441 083c 0815      		cp r16,r8
 2442 083e 1905      		cpc r17,r9
 2443 0840 01F4      		brne .L119
 2444 0842 80E9      		ldi r24,lo8(400)
 2445 0844 91E0      		ldi r25,hi8(400)
 2446               	.LVL135:
 2447               	.LBE979:
 2448               	.LBB1012:
 2449               	.LBB1013:
 2450               	.LBB1014:
 2451               	.LBB1015:
 2452               	.LBB1016:
 2453               	.LBB1017:
 2454               	.LBB1018:
 2455               	.LBB1019:
 2456               	.LM174:
 2457 0846 28EC      		ldi r18,lo8(200)
 2458 0848 30E0      		ldi r19,hi8(200)
 2459               	.L120:
 2460 084a F901      		movw r30,r18
 2461               	.LVL136:
 2462               	/* #APP */
 2463               	 ;  110 "/usr/local/CrossPack-AVR-20100115/lib/gcc/avr/4.3.3/../../../../avr/include/util/delay_bas
 2464 084c 3197      		1: sbiw r30,1
 2465 084e 01F4      		brne 1b
 2466               	 ;  0 "" 2
 2467               	/* #NOAPP */
 2468               	.LBE1019:
 2469               	.LBE1018:
 2470               	.LM175:
 2471 0850 0197      		sbiw r24,1
 2472               	.LM176:
 2473 0852 01F4      		brne .L120
 2474               	.LBE1017:
 2475               	.LBE1016:
 2476               	.LBE1015:
 2477               	.LBE1014:
 2478               	.LBE1013:
 2479               	.LBE1012:
 2480               	.LM177:
 2481 0854 872D      		mov r24,r7
 2482               	.LVL137:
 2483 0856 962D      		mov r25,r6
 2484 0858 9C01      		movw r18,r24
 2485 085a 2536      		cpi r18,101
 2486 085c 3105      		cpc r19,__zero_reg__
 2487 085e 00F0      		brlo .L121
 2488               	.LVL138:
 2489 0860 24E6      		ldi r18,lo8(100)
 2490 0862 30E0      		ldi r19,hi8(100)
 2491               	.LVL139:
 2492               	.L121:
 2493 0864 84E3      		ldi r24,lo8(52)
 2494 0866 90E0      		ldi r25,hi8(52)
 2495 0868 AC01      		movw r20,r24
 2496 086a 249F      		mul r18,r20
 2497 086c C001      		movw r24,r0
 2498 086e 259F      		mul r18,r21
 2499 0870 900D      		add r25,r0
 2500 0872 349F      		mul r19,r20
 2501 0874 900D      		add r25,r0
 2502 0876 1124      		clr r1
 2503 0878 64E6      		ldi r22,lo8(100)
 2504 087a 70E0      		ldi r23,hi8(100)
 2505 087c 0E94 0000 		call __udivmodhi4
 2506 0880 6B01      		movw r12,r22
 2507               	.LVL140:
 2508 0882 0894      		sec
 2509 0884 C11C      		adc r12,__zero_reg__
 2510 0886 D11C      		adc r13,__zero_reg__
 2511 0888 01E0      		ldi r16,lo8(1)
 2512 088a 10E0      		ldi r17,hi8(1)
 2513               	.LVL141:
 2514               	.LBB1020:
 2515               	.LBB1021:
 2516               	.LBB1022:
 2517               	.LBB1023:
 2518               	.LBB1024:
 2519               	.LBB1025:
 2520               	.LBB1026:
 2521               	.LBB1027:
 2522               	.LBB1028:
 2523               	.LM178:
 2524 088c A0EA      		ldi r26,lo8(4000)
 2525 088e 8A2E      		mov r8,r26
 2526 0890 AFE0      		ldi r26,hi8(4000)
 2527 0892 9A2E      		mov r9,r26
 2528               	.LBE1028:
 2529               	.LBE1027:
 2530               	.LBE1026:
 2531               	.LBE1025:
 2532               	.LBE1024:
 2533               	.LBE1023:
 2534               	.LBE1022:
 2535               	.LBE1021:
 2536               	.LBB1036:
 2537               	.LBB1037:
 2538               	.LBB1038:
 2539               	.LBB1039:
 2540               	.LBB1040:
 2541               	.LBB1041:
 2542               	.LBB1042:
 2543               	.LBB1043:
 2544 0894 F8EC      		ldi r31,lo8(200)
 2545 0896 AF2E      		mov r10,r31
 2546 0898 B12C      		mov r11,__zero_reg__
 2547 089a 00C0      		rjmp .L122
 2548               	.LVL142:
 2549               	.L124:
 2550               	.LBE1043:
 2551               	.LBE1042:
 2552               	.LBE1041:
 2553               	.LBE1040:
 2554               	.LBE1039:
 2555               	.LBE1038:
 2556               	.LBE1037:
 2557               	.LBE1036:
 2558               	.LM179:
 2559 089c C701      		movw r24,r14
 2560               	.LVL143:
 2561 089e 68E2      		ldi r22,lo8(9000)
 2562 08a0 73E2      		ldi r23,hi8(9000)
 2563 08a2 48E2      		ldi r20,lo8(40)
 2564 08a4 50E0      		ldi r21,hi8(40)
 2565 08a6 0E94 0000 		call _ZN2IR4highEji
 2566               	.LVL144:
 2567               	.LBB1051:
 2568               	.LBB1035:
 2569               	.LBB1034:
 2570               	.LBB1033:
 2571               	.LBB1032:
 2572               	.LBB1031:
 2573               	.LBB1030:
 2574               	.LBB1029:
 2575               	.LM180:
 2576 08aa C401      		movw r24,r8
 2577               	.LVL145:
 2578               	/* #APP */
 2579               	 ;  110 "/usr/local/CrossPack-AVR-20100115/lib/gcc/avr/4.3.3/../../../../avr/include/util/delay_bas
 2580 08ac 0197      		1: sbiw r24,1
 2581 08ae 01F4      		brne 1b
 2582               	 ;  0 "" 2
 2583               	/* #NOAPP */
 2584               	.LBE1029:
 2585               	.LBE1030:
 2586               	.LBE1031:
 2587               	.LBE1032:
 2588               	.LBE1033:
 2589               	.LBE1034:
 2590               	.LBE1035:
 2591               	.LBE1051:
 2592               	.LM181:
 2593 08b0 C701      		movw r24,r14
 2594               	.LVL146:
 2595 08b2 64EF      		ldi r22,lo8(500)
 2596 08b4 71E0      		ldi r23,hi8(500)
 2597 08b6 48E2      		ldi r20,lo8(40)
 2598 08b8 50E0      		ldi r21,hi8(40)
 2599 08ba 0E94 0000 		call _ZN2IR4highEji
 2600 08be 80EC      		ldi r24,lo8(960)
 2601 08c0 93E0      		ldi r25,hi8(960)
 2602               	.LVL147:
 2603               	.L123:
 2604               	.LBB1052:
 2605               	.LBB1050:
 2606               	.LBB1049:
 2607               	.LBB1048:
 2608               	.LBB1047:
 2609               	.LBB1046:
 2610               	.LBB1045:
 2611               	.LBB1044:
 2612               	.LM182:
 2613 08c2 F501      		movw r30,r10
 2614               	.LVL148:
 2615               	/* #APP */
 2616               	 ;  110 "/usr/local/CrossPack-AVR-20100115/lib/gcc/avr/4.3.3/../../../../avr/include/util/delay_bas
 2617 08c4 3197      		1: sbiw r30,1
 2618 08c6 01F4      		brne 1b
 2619               	 ;  0 "" 2
 2620               	/* #NOAPP */
 2621               	.LBE1044:
 2622               	.LBE1045:
 2623               	.LM183:
 2624 08c8 0197      		sbiw r24,1
 2625               	.LM184:
 2626 08ca 01F4      		brne .L123
 2627               	.LBE1046:
 2628               	.LBE1047:
 2629               	.LBE1048:
 2630               	.LBE1049:
 2631               	.LBE1050:
 2632               	.LBE1052:
 2633               	.LM185:
 2634 08cc 0F5F      		subi r16,lo8(-(1))
 2635 08ce 1F4F      		sbci r17,hi8(-(1))
 2636               	.LVL149:
 2637               	.L122:
 2638 08d0 0C15      		cp r16,r12
 2639 08d2 1D05      		cpc r17,r13
 2640 08d4 00F0      		brlo .L124
 2641               	.LVL150:
 2642               	.L125:
 2643               	/* epilogue start */
 2644               	.LBE1020:
 2645               	.LBE970:
 2646               	.LBE969:
 2647               	.LM186:
 2648 08d6 A096      		adiw r28,32
 2649 08d8 0FB6      		in __tmp_reg__,__SREG__
 2650 08da F894      		cli
 2651 08dc DEBF      		out __SP_H__,r29
 2652 08de 0FBE      		out __SREG__,__tmp_reg__
 2653 08e0 CDBF      		out __SP_L__,r28
 2654 08e2 CF91      		pop r28
 2655 08e4 DF91      		pop r29
 2656 08e6 1F91      		pop r17
 2657 08e8 0F91      		pop r16
 2658               	.LVL151:
 2659 08ea FF90      		pop r15
 2660 08ec EF90      		pop r14
 2661               	.LVL152:
 2662 08ee DF90      		pop r13
 2663 08f0 CF90      		pop r12
 2664               	.LVL153:
 2665 08f2 BF90      		pop r11
 2666 08f4 AF90      		pop r10
 2667 08f6 9F90      		pop r9
 2668 08f8 8F90      		pop r8
 2669 08fa 7F90      		pop r7
 2670               	.LVL154:
 2671 08fc 6F90      		pop r6
 2672               	.LVL155:
 2673 08fe 0895      		ret
 2674               	.LFE12:
 2676               	.global	_ZN2IR7zoomOutEj
 2678               	_ZN2IR7zoomOutEj:
 2679               	.LFB13:
 2680               	.LM187:
 2681               	.LVL156:
 2682 0900 6F92      		push r6
 2683 0902 7F92      		push r7
 2684 0904 8F92      		push r8
 2685 0906 9F92      		push r9
 2686 0908 AF92      		push r10
 2687 090a BF92      		push r11
 2688 090c CF92      		push r12
 2689 090e DF92      		push r13
 2690 0910 EF92      		push r14
 2691 0912 FF92      		push r15
 2692 0914 0F93      		push r16
 2693 0916 1F93      		push r17
 2694 0918 DF93      		push r29
 2695 091a CF93      		push r28
 2696 091c CDB7      		in r28,__SP_L__
 2697 091e DEB7      		in r29,__SP_H__
 2698 0920 A097      		sbiw r28,32
 2699 0922 0FB6      		in __tmp_reg__,__SREG__
 2700 0924 F894      		cli
 2701 0926 DEBF      		out __SP_H__,r29
 2702 0928 0FBE      		out __SREG__,__tmp_reg__
 2703 092a CDBF      		out __SP_L__,r28
 2704               	/* prologue: function */
 2705               	/* frame size = 32 */
 2706 092c 7C01      		movw r14,r24
 2707 092e 762E      		mov r7,r22
 2708 0930 672E      		mov r6,r23
 2709               	.LVL157:
 2710               	.LBB1053:
 2711               	.LM188:
 2712 0932 FC01      		movw r30,r24
 2713 0934 8081      		ld r24,Z
 2714               	.LVL158:
 2715 0936 8430      		cpi r24,lo8(4)
 2716 0938 01F0      		breq .+2
 2717 093a 00C0      		rjmp .L142
 2718               	.LVL159:
 2719               	.LBB1054:
 2720               	.LM189:
 2721 093c DE01      		movw r26,r28
 2722 093e 1196      		adiw r26,1
 2723 0940 E0E0      		ldi r30,lo8(_ZZN2IR7zoomOutEjE4C.19)
 2724 0942 F0E0      		ldi r31,hi8(_ZZN2IR7zoomOutEjE4C.19)
 2725 0944 80E2      		ldi r24,lo8(32)
 2726               	.L132:
 2727 0946 0190      		ld r0,Z+
 2728 0948 0D92      		st X+,r0
 2729 094a 8150      		subi r24,lo8(-(-1))
 2730 094c 01F4      		brne .L132
 2731               	.LM190:
 2732 094e C701      		movw r24,r14
 2733 0950 68E2      		ldi r22,lo8(9000)
 2734 0952 73E2      		ldi r23,hi8(9000)
 2735 0954 48E2      		ldi r20,lo8(40)
 2736 0956 50E0      		ldi r21,hi8(40)
 2737 0958 0E94 0000 		call _ZN2IR4highEji
 2738               	.LBB1055:
 2739               	.LBB1056:
 2740               	.LBB1057:
 2741               	.LBB1058:
 2742               	.LBB1059:
 2743               	.LBB1060:
 2744               	.LBB1061:
 2745               	.LBB1062:
 2746               	.LM191:
 2747 095c 88E2      		ldi r24,lo8(9000)
 2748 095e 93E2      		ldi r25,hi8(9000)
 2749               	.LVL160:
 2750               	/* #APP */
 2751               	 ;  110 "/usr/local/CrossPack-AVR-20100115/lib/gcc/avr/4.3.3/../../../../avr/include/util/delay_bas
 2752 0960 0197      		1: sbiw r24,1
 2753 0962 01F4      		brne 1b
 2754               	 ;  0 "" 2
 2755               	/* #NOAPP */
 2756               	.LBE1062:
 2757               	.LBE1061:
 2758               	.LBE1060:
 2759               	.LBE1059:
 2760               	.LBE1058:
 2761               	.LBE1057:
 2762               	.LBE1056:
 2763               	.LBE1055:
 2764               	.LM192:
 2765 0964 C701      		movw r24,r14
 2766               	.LVL161:
 2767 0966 64EF      		ldi r22,lo8(500)
 2768 0968 71E0      		ldi r23,hi8(500)
 2769 096a 48E2      		ldi r20,lo8(40)
 2770 096c 50E0      		ldi r21,hi8(40)
 2771 096e 0E94 0000 		call _ZN2IR4highEji
 2772 0972 8E01      		movw r16,r28
 2773 0974 0F5F      		subi r16,lo8(-(1))
 2774 0976 1F4F      		sbci r17,hi8(-(1))
 2775               	.LBB1063:
 2776               	.LM193:
 2777 0978 61E2      		ldi r22,lo8(33)
 2778 097a 862E      		mov r8,r22
 2779 097c 912C      		mov r9,__zero_reg__
 2780 097e 8C0E      		add r8,r28
 2781 0980 9D1E      		adc r9,r29
 2782               	.LBB1064:
 2783               	.LBB1065:
 2784               	.LBB1066:
 2785               	.LBB1067:
 2786               	.LBB1068:
 2787               	.LBB1069:
 2788               	.LBB1070:
 2789               	.LBB1071:
 2790               	.LM194:
 2791 0982 58EB      		ldi r21,lo8(3000)
 2792 0984 A52E      		mov r10,r21
 2793 0986 5BE0      		ldi r21,hi8(3000)
 2794 0988 B52E      		mov r11,r21
 2795               	.LBE1071:
 2796               	.LBE1070:
 2797               	.LBE1069:
 2798               	.LBE1068:
 2799               	.LBE1067:
 2800               	.LBE1066:
 2801               	.LBE1065:
 2802               	.LBE1064:
 2803               	.LBB1079:
 2804               	.LBB1080:
 2805               	.LBB1081:
 2806               	.LBB1082:
 2807               	.LBB1083:
 2808               	.LBB1084:
 2809               	.LBB1085:
 2810               	.LBB1086:
 2811 098a 48EE      		ldi r20,lo8(1000)
 2812 098c C42E      		mov r12,r20
 2813 098e 43E0      		ldi r20,hi8(1000)
 2814 0990 D42E      		mov r13,r20
 2815 0992 00C0      		rjmp .L133
 2816               	.L136:
 2817               	.LBE1086:
 2818               	.LBE1085:
 2819               	.LBE1084:
 2820               	.LBE1083:
 2821               	.LBE1082:
 2822               	.LBE1081:
 2823               	.LBE1080:
 2824               	.LBE1079:
 2825               	.LM195:
 2826 0994 F801      		movw r30,r16
 2827 0996 8081      		ld r24,Z
 2828 0998 8823      		tst r24
 2829 099a 01F4      		brne .L134
 2830               	.LBB1094:
 2831               	.LBB1093:
 2832               	.LBB1092:
 2833               	.LBB1091:
 2834               	.LBB1090:
 2835               	.LBB1089:
 2836               	.LBB1088:
 2837               	.LBB1087:
 2838               	.LM196:
 2839 099c C601      		movw r24,r12
 2840               	.LVL162:
 2841 099e 00C0      		rjmp .L146
 2842               	.LVL163:
 2843               	.L134:
 2844               	.LBE1087:
 2845               	.LBE1088:
 2846               	.LBE1089:
 2847               	.LBE1090:
 2848               	.LBE1091:
 2849               	.LBE1092:
 2850               	.LBE1093:
 2851               	.LBE1094:
 2852               	.LBB1095:
 2853               	.LBB1078:
 2854               	.LBB1077:
 2855               	.LBB1076:
 2856               	.LBB1075:
 2857               	.LBB1074:
 2858               	.LBB1073:
 2859               	.LBB1072:
 2860 09a0 C501      		movw r24,r10
 2861               	.LVL164:
 2862               	.L146:
 2863               	/* #APP */
 2864               	 ;  110 "/usr/local/CrossPack-AVR-20100115/lib/gcc/avr/4.3.3/../../../../avr/include/util/delay_bas
 2865 09a2 0197      		1: sbiw r24,1
 2866 09a4 01F4      		brne 1b
 2867               	 ;  0 "" 2
 2868               	.LVL165:
 2869               	/* #NOAPP */
 2870               	.LBE1072:
 2871               	.LBE1073:
 2872               	.LBE1074:
 2873               	.LBE1075:
 2874               	.LBE1076:
 2875               	.LBE1077:
 2876               	.LBE1078:
 2877               	.LBE1095:
 2878               	.LM197:
 2879 09a6 C701      		movw r24,r14
 2880               	.LVL166:
 2881 09a8 64EF      		ldi r22,lo8(500)
 2882 09aa 71E0      		ldi r23,hi8(500)
 2883 09ac 48E2      		ldi r20,lo8(40)
 2884 09ae 50E0      		ldi r21,hi8(40)
 2885 09b0 0E94 0000 		call _ZN2IR4highEji
 2886 09b4 0F5F      		subi r16,lo8(-(1))
 2887 09b6 1F4F      		sbci r17,hi8(-(1))
 2888               	.L133:
 2889               	.LM198:
 2890 09b8 0815      		cp r16,r8
 2891 09ba 1905      		cpc r17,r9
 2892 09bc 01F4      		brne .L136
 2893 09be 80E9      		ldi r24,lo8(400)
 2894 09c0 91E0      		ldi r25,hi8(400)
 2895               	.LVL167:
 2896               	.LBE1063:
 2897               	.LBB1096:
 2898               	.LBB1097:
 2899               	.LBB1098:
 2900               	.LBB1099:
 2901               	.LBB1100:
 2902               	.LBB1101:
 2903               	.LBB1102:
 2904               	.LBB1103:
 2905               	.LM199:
 2906 09c2 28EC      		ldi r18,lo8(200)
 2907 09c4 30E0      		ldi r19,hi8(200)
 2908               	.L137:
 2909 09c6 F901      		movw r30,r18
 2910               	.LVL168:
 2911               	/* #APP */
 2912               	 ;  110 "/usr/local/CrossPack-AVR-20100115/lib/gcc/avr/4.3.3/../../../../avr/include/util/delay_bas
 2913 09c8 3197      		1: sbiw r30,1
 2914 09ca 01F4      		brne 1b
 2915               	 ;  0 "" 2
 2916               	/* #NOAPP */
 2917               	.LBE1103:
 2918               	.LBE1102:
 2919               	.LM200:
 2920 09cc 0197      		sbiw r24,1
 2921               	.LM201:
 2922 09ce 01F4      		brne .L137
 2923               	.LBE1101:
 2924               	.LBE1100:
 2925               	.LBE1099:
 2926               	.LBE1098:
 2927               	.LBE1097:
 2928               	.LBE1096:
 2929               	.LM202:
 2930 09d0 872D      		mov r24,r7
 2931               	.LVL169:
 2932 09d2 962D      		mov r25,r6
 2933 09d4 9C01      		movw r18,r24
 2934 09d6 2536      		cpi r18,101
 2935 09d8 3105      		cpc r19,__zero_reg__
 2936 09da 00F0      		brlo .L138
 2937               	.LVL170:
 2938 09dc 24E6      		ldi r18,lo8(100)
 2939 09de 30E0      		ldi r19,hi8(100)
 2940               	.LVL171:
 2941               	.L138:
 2942 09e0 86E4      		ldi r24,lo8(70)
 2943 09e2 90E0      		ldi r25,hi8(70)
 2944 09e4 AC01      		movw r20,r24
 2945 09e6 249F      		mul r18,r20
 2946 09e8 C001      		movw r24,r0
 2947 09ea 259F      		mul r18,r21
 2948 09ec 900D      		add r25,r0
 2949 09ee 349F      		mul r19,r20
 2950 09f0 900D      		add r25,r0
 2951 09f2 1124      		clr r1
 2952 09f4 64E6      		ldi r22,lo8(100)
 2953 09f6 70E0      		ldi r23,hi8(100)
 2954 09f8 0E94 0000 		call __udivmodhi4
 2955 09fc 6B01      		movw r12,r22
 2956               	.LVL172:
 2957 09fe 0894      		sec
 2958 0a00 C11C      		adc r12,__zero_reg__
 2959 0a02 D11C      		adc r13,__zero_reg__
 2960 0a04 01E0      		ldi r16,lo8(1)
 2961 0a06 10E0      		ldi r17,hi8(1)
 2962               	.LVL173:
 2963               	.LBB1104:
 2964               	.LBB1105:
 2965               	.LBB1106:
 2966               	.LBB1107:
 2967               	.LBB1108:
 2968               	.LBB1109:
 2969               	.LBB1110:
 2970               	.LBB1111:
 2971               	.LBB1112:
 2972               	.LM203:
 2973 0a08 30EA      		ldi r19,lo8(4000)
 2974 0a0a 832E      		mov r8,r19
 2975 0a0c 3FE0      		ldi r19,hi8(4000)
 2976 0a0e 932E      		mov r9,r19
 2977               	.LBE1112:
 2978               	.LBE1111:
 2979               	.LBE1110:
 2980               	.LBE1109:
 2981               	.LBE1108:
 2982               	.LBE1107:
 2983               	.LBE1106:
 2984               	.LBE1105:
 2985               	.LBB1120:
 2986               	.LBB1121:
 2987               	.LBB1122:
 2988               	.LBB1123:
 2989               	.LBB1124:
 2990               	.LBB1125:
 2991               	.LBB1126:
 2992               	.LBB1127:
 2993 0a10 28EC      		ldi r18,lo8(200)
 2994 0a12 A22E      		mov r10,r18
 2995 0a14 B12C      		mov r11,__zero_reg__
 2996 0a16 00C0      		rjmp .L139
 2997               	.LVL174:
 2998               	.L141:
 2999               	.LBE1127:
 3000               	.LBE1126:
 3001               	.LBE1125:
 3002               	.LBE1124:
 3003               	.LBE1123:
 3004               	.LBE1122:
 3005               	.LBE1121:
 3006               	.LBE1120:
 3007               	.LM204:
 3008 0a18 C701      		movw r24,r14
 3009               	.LVL175:
 3010 0a1a 68E2      		ldi r22,lo8(9000)
 3011 0a1c 73E2      		ldi r23,hi8(9000)
 3012 0a1e 48E2      		ldi r20,lo8(40)
 3013 0a20 50E0      		ldi r21,hi8(40)
 3014 0a22 0E94 0000 		call _ZN2IR4highEji
 3015               	.LVL176:
 3016               	.LBB1135:
 3017               	.LBB1119:
 3018               	.LBB1118:
 3019               	.LBB1117:
 3020               	.LBB1116:
 3021               	.LBB1115:
 3022               	.LBB1114:
 3023               	.LBB1113:
 3024               	.LM205:
 3025 0a26 C401      		movw r24,r8
 3026               	.LVL177:
 3027               	/* #APP */
 3028               	 ;  110 "/usr/local/CrossPack-AVR-20100115/lib/gcc/avr/4.3.3/../../../../avr/include/util/delay_bas
 3029 0a28 0197      		1: sbiw r24,1
 3030 0a2a 01F4      		brne 1b
 3031               	 ;  0 "" 2
 3032               	/* #NOAPP */
 3033               	.LBE1113:
 3034               	.LBE1114:
 3035               	.LBE1115:
 3036               	.LBE1116:
 3037               	.LBE1117:
 3038               	.LBE1118:
 3039               	.LBE1119:
 3040               	.LBE1135:
 3041               	.LM206:
 3042 0a2c C701      		movw r24,r14
 3043               	.LVL178:
 3044 0a2e 64EF      		ldi r22,lo8(500)
 3045 0a30 71E0      		ldi r23,hi8(500)
 3046 0a32 48E2      		ldi r20,lo8(40)
 3047 0a34 50E0      		ldi r21,hi8(40)
 3048 0a36 0E94 0000 		call _ZN2IR4highEji
 3049 0a3a 80EC      		ldi r24,lo8(960)
 3050 0a3c 93E0      		ldi r25,hi8(960)
 3051               	.LVL179:
 3052               	.L140:
 3053               	.LBB1136:
 3054               	.LBB1134:
 3055               	.LBB1133:
 3056               	.LBB1132:
 3057               	.LBB1131:
 3058               	.LBB1130:
 3059               	.LBB1129:
 3060               	.LBB1128:
 3061               	.LM207:
 3062 0a3e F501      		movw r30,r10
 3063               	.LVL180:
 3064               	/* #APP */
 3065               	 ;  110 "/usr/local/CrossPack-AVR-20100115/lib/gcc/avr/4.3.3/../../../../avr/include/util/delay_bas
 3066 0a40 3197      		1: sbiw r30,1
 3067 0a42 01F4      		brne 1b
 3068               	 ;  0 "" 2
 3069               	/* #NOAPP */
 3070               	.LBE1128:
 3071               	.LBE1129:
 3072               	.LM208:
 3073 0a44 0197      		sbiw r24,1
 3074               	.LM209:
 3075 0a46 01F4      		brne .L140
 3076               	.LBE1130:
 3077               	.LBE1131:
 3078               	.LBE1132:
 3079               	.LBE1133:
 3080               	.LBE1134:
 3081               	.LBE1136:
 3082               	.LM210:
 3083 0a48 0F5F      		subi r16,lo8(-(1))
 3084 0a4a 1F4F      		sbci r17,hi8(-(1))
 3085               	.LVL181:
 3086               	.L139:
 3087 0a4c 0C15      		cp r16,r12
 3088 0a4e 1D05      		cpc r17,r13
 3089 0a50 00F0      		brlo .L141
 3090               	.LVL182:
 3091               	.L142:
 3092               	/* epilogue start */
 3093               	.LBE1104:
 3094               	.LBE1054:
 3095               	.LBE1053:
 3096               	.LM211:
 3097 0a52 A096      		adiw r28,32
 3098 0a54 0FB6      		in __tmp_reg__,__SREG__
 3099 0a56 F894      		cli
 3100 0a58 DEBF      		out __SP_H__,r29
 3101 0a5a 0FBE      		out __SREG__,__tmp_reg__
 3102 0a5c CDBF      		out __SP_L__,r28
 3103 0a5e CF91      		pop r28
 3104 0a60 DF91      		pop r29
 3105 0a62 1F91      		pop r17
 3106 0a64 0F91      		pop r16
 3107               	.LVL183:
 3108 0a66 FF90      		pop r15
 3109 0a68 EF90      		pop r14
 3110               	.LVL184:
 3111 0a6a DF90      		pop r13
 3112 0a6c CF90      		pop r12
 3113               	.LVL185:
 3114 0a6e BF90      		pop r11
 3115 0a70 AF90      		pop r10
 3116 0a72 9F90      		pop r9
 3117 0a74 8F90      		pop r8
 3118 0a76 7F90      		pop r7
 3119               	.LVL186:
 3120 0a78 6F90      		pop r6
 3121               	.LVL187:
 3122 0a7a 0895      		ret
 3123               	.LFE13:
 3125               		.data
 3128               	_ZZN2IR7zoomOutEjE4C.19:
 3129 0000 00        		.byte	0
 3130 0001 01        		.byte	1
 3131 0002 01        		.byte	1
 3132 0003 00        		.byte	0
 3133 0004 00        		.byte	0
 3134 0005 00        		.byte	0
 3135 0006 00        		.byte	0
 3136 0007 01        		.byte	1
 3137 0008 01        		.byte	1
 3138 0009 01        		.byte	1
 3139 000a 00        		.byte	0
 3140 000b 01        		.byte	1
 3141 000c 01        		.byte	1
 3142 000d 01        		.byte	1
 3143 000e 00        		.byte	0
 3144 000f 00        		.byte	0
 3145 0010 00        		.byte	0
 3146 0011 01        		.byte	1
 3147 0012 00        		.byte	0
 3148 0013 00        		.byte	0
 3149 0014 00        		.byte	0
 3150 0015 00        		.byte	0
 3151 0016 00        		.byte	0
 3152 0017 00        		.byte	0
 3153 0018 01        		.byte	1
 3154 0019 00        		.byte	0
 3155 001a 01        		.byte	1
 3156 001b 01        		.byte	1
 3157 001c 01        		.byte	1
 3158 001d 01        		.byte	1
 3159 001e 01        		.byte	1
 3160 001f 01        		.byte	1
 3163               	_ZZN2IR6zoomInEjE4C.15:
 3164 0020 00        		.byte	0
 3165 0021 01        		.byte	1
 3166 0022 01        		.byte	1
 3167 0023 00        		.byte	0
 3168 0024 00        		.byte	0
 3169 0025 00        		.byte	0
 3170 0026 00        		.byte	0
 3171 0027 01        		.byte	1
 3172 0028 01        		.byte	1
 3173 0029 01        		.byte	1
 3174 002a 00        		.byte	0
 3175 002b 01        		.byte	1
 3176 002c 01        		.byte	1
 3177 002d 01        		.byte	1
 3178 002e 00        		.byte	0
 3179 002f 00        		.byte	0
 3180 0030 01        		.byte	1
 3181 0031 01        		.byte	1
 3182 0032 00        		.byte	0
 3183 0033 00        		.byte	0
 3184 0034 00        		.byte	0
 3185 0035 00        		.byte	0
 3186 0036 00        		.byte	0
 3187 0037 00        		.byte	0
 3188 0038 00        		.byte	0
 3189 0039 00        		.byte	0
 3190 003a 01        		.byte	1
 3191 003b 01        		.byte	1
 3192 003c 01        		.byte	1
 3193 003d 01        		.byte	1
 3194 003e 01        		.byte	1
 3195 003f 01        		.byte	1
 3198               	_ZZN2IR14shutterDelayedEvE4C.12:
 3199 0040 01        		.byte	1
 3200 0041 01        		.byte	1
 3201 0042 01        		.byte	1
 3202 0043 00        		.byte	0
 3203 0044 01        		.byte	1
 3204 0045 01        		.byte	1
 3205 0046 00        		.byte	0
 3206 0047 00        		.byte	0
 3207 0048 01        		.byte	1
 3208 0049 00        		.byte	0
 3209 004a 01        		.byte	1
 3210 004b 01        		.byte	1
 3211 004c 01        		.byte	1
 3212 004d 00        		.byte	0
 3213 004e 00        		.byte	0
 3214 004f 00        		.byte	0
 3215 0050 01        		.byte	1
 3216 0051 01        		.byte	1
 3217 0052 01        		.byte	1
 3218 0053 01        		.byte	1
 3221               	_ZZN2IR14shutterDelayedEvE3C.9:
 3222 0054 00        		.byte	0
 3223 0055 00        		.byte	0
 3224 0056 01        		.byte	1
 3225 0057 00        		.byte	0
 3226 0058 01        		.byte	1
 3227 0059 01        		.byte	1
 3228 005a 00        		.byte	0
 3229 005b 00        		.byte	0
 3230 005c 00        		.byte	0
 3231 005d 01        		.byte	1
 3232 005e 00        		.byte	0
 3233 005f 01        		.byte	1
 3234 0060 00        		.byte	0
 3235 0061 00        		.byte	0
 3236 0062 01        		.byte	1
 3237 0063 01        		.byte	1
 3238 0064 01        		.byte	1
 3239 0065 00        		.byte	0
 3240 0066 00        		.byte	0
 3241 0067 00        		.byte	0
 3242 0068 00        		.byte	0
 3243 0069 00        		.byte	0
 3244 006a 01        		.byte	1
 3245 006b 00        		.byte	0
 3246 006c 00        		.byte	0
 3247 006d 00        		.byte	0
 3248 006e 00        		.byte	0
 3249 006f 00        		.byte	0
 3250 0070 00        		.byte	0
 3251 0071 00        		.byte	0
 3252 0072 00        		.byte	0
 3253 0073 00        		.byte	0
 3254 0074 01        		.byte	1
 3257               	_ZZN2IR10shutterNowEvE3C.6:
 3258 0075 01        		.byte	1
 3259 0076 00        		.byte	0
 3260 0077 01        		.byte	1
 3261 0078 01        		.byte	1
 3262 0079 00        		.byte	0
 3263 007a 01        		.byte	1
 3264 007b 00        		.byte	0
 3265 007c 00        		.byte	0
 3266 007d 01        		.byte	1
 3267 007e 00        		.byte	0
 3268 007f 01        		.byte	1
 3269 0080 01        		.byte	1
 3270 0081 01        		.byte	1
 3271 0082 00        		.byte	0
 3272 0083 00        		.byte	0
 3273 0084 00        		.byte	0
 3274 0085 01        		.byte	1
 3275 0086 01        		.byte	1
 3276 0087 01        		.byte	1
 3277 0088 01        		.byte	1
 3280               	_ZZN2IR10shutterNowEvE3C.3:
 3281 0089 00        		.byte	0
 3282 008a 00        		.byte	0
 3283 008b 01        		.byte	1
 3284 008c 00        		.byte	0
 3285 008d 01        		.byte	1
 3286 008e 01        		.byte	1
 3287 008f 00        		.byte	0
 3288 0090 00        		.byte	0
 3289 0091 00        		.byte	0
 3290 0092 01        		.byte	1
 3291 0093 00        		.byte	0
 3292 0094 01        		.byte	1
 3293 0095 00        		.byte	0
 3294 0096 00        		.byte	0
 3295 0097 01        		.byte	1
 3296 0098 01        		.byte	1
 3297 0099 01        		.byte	1
 3298 009a 00        		.byte	0
 3299 009b 00        		.byte	0
 3300 009c 00        		.byte	0
 3301 009d 00        		.byte	0
 3302 009e 00        		.byte	0
 3303 009f 01        		.byte	1
 3304 00a0 00        		.byte	0
 3305 00a1 01        		.byte	1
 3306 00a2 00        		.byte	0
 3307 00a3 00        		.byte	0
 3308 00a4 00        		.byte	0
 3309 00a5 00        		.byte	0
 3310 00a6 00        		.byte	0
 3311 00a7 00        		.byte	0
 3312 00a8 00        		.byte	0
 3313 00a9 01        		.byte	1
 3316               	_ZZN2IR10shutterNowEvE3C.0:
 3317 00aa 00        		.byte	0
 3318 00ab 01        		.byte	1
 3319 00ac 01        		.byte	1
 3320 00ad 00        		.byte	0
 3321 00ae 00        		.byte	0
 3322 00af 00        		.byte	0
 3323 00b0 00        		.byte	0
 3324 00b1 01        		.byte	1
 3325 00b2 01        		.byte	1
 3326 00b3 01        		.byte	1
 3327 00b4 00        		.byte	0
 3328 00b5 01        		.byte	1
 3329 00b6 01        		.byte	1
 3330 00b7 01        		.byte	1
 3331 00b8 00        		.byte	0
 3332 00b9 00        		.byte	0
 3333 00ba 01        		.byte	1
 3334 00bb 00        		.byte	0
 3335 00bc 00        		.byte	0
 3336 00bd 00        		.byte	0
 3337 00be 00        		.byte	0
 3338 00bf 00        		.byte	0
 3339 00c0 00        		.byte	0
 3340 00c1 00        		.byte	0
 3341 00c2 00        		.byte	0
 3342 00c3 01        		.byte	1
 3343 00c4 01        		.byte	1
 3344 00c5 01        		.byte	1
 3345 00c6 01        		.byte	1
 3346 00c7 01        		.byte	1
 3347 00c8 01        		.byte	1
 3348 00c9 01        		.byte	1
 3421               	.Letext0:
DEFINED SYMBOLS
                            *ABS*:00000000 multiCameraIrControl.cpp
/var/folders/z6/vpmk4_yd42j_9xbv3n5kw3wc0000gn/T//ccdAlt5o.s:2      *ABS*:0000003f __SREG__
/var/folders/z6/vpmk4_yd42j_9xbv3n5kw3wc0000gn/T//ccdAlt5o.s:3      *ABS*:0000003e __SP_H__
/var/folders/z6/vpmk4_yd42j_9xbv3n5kw3wc0000gn/T//ccdAlt5o.s:4      *ABS*:0000003d __SP_L__
/var/folders/z6/vpmk4_yd42j_9xbv3n5kw3wc0000gn/T//ccdAlt5o.s:5      *ABS*:00000034 __CCP__
/var/folders/z6/vpmk4_yd42j_9xbv3n5kw3wc0000gn/T//ccdAlt5o.s:6      *ABS*:00000000 __tmp_reg__
/var/folders/z6/vpmk4_yd42j_9xbv3n5kw3wc0000gn/T//ccdAlt5o.s:7      *ABS*:00000001 __zero_reg__
/var/folders/z6/vpmk4_yd42j_9xbv3n5kw3wc0000gn/T//ccdAlt5o.s:18     .text:00000000 _ZN2IRC2Ev
/var/folders/z6/vpmk4_yd42j_9xbv3n5kw3wc0000gn/T//ccdAlt5o.s:35     .text:00000004 _ZN2IRC1Ev
/var/folders/z6/vpmk4_yd42j_9xbv3n5kw3wc0000gn/T//ccdAlt5o.s:52     .text:00000008 _ZN2IR4highEji
/var/folders/z6/vpmk4_yd42j_9xbv3n5kw3wc0000gn/T//ccdAlt5o.s:553    .text:000002a4 _ZN2IR10shutterNowEv
/var/folders/z6/vpmk4_yd42j_9xbv3n5kw3wc0000gn/T//ccdAlt5o.s:3316   .data:000000aa _ZZN2IR10shutterNowEvE3C.0
/var/folders/z6/vpmk4_yd42j_9xbv3n5kw3wc0000gn/T//ccdAlt5o.s:3280   .data:00000089 _ZZN2IR10shutterNowEvE3C.3
/var/folders/z6/vpmk4_yd42j_9xbv3n5kw3wc0000gn/T//ccdAlt5o.s:3257   .data:00000075 _ZZN2IR10shutterNowEvE3C.6
/var/folders/z6/vpmk4_yd42j_9xbv3n5kw3wc0000gn/T//ccdAlt5o.s:1597   .text:000005ac _ZN2IR14shutterDelayedEv
/var/folders/z6/vpmk4_yd42j_9xbv3n5kw3wc0000gn/T//ccdAlt5o.s:3221   .data:00000054 _ZZN2IR14shutterDelayedEvE3C.9
/var/folders/z6/vpmk4_yd42j_9xbv3n5kw3wc0000gn/T//ccdAlt5o.s:3198   .data:00000040 _ZZN2IR14shutterDelayedEvE4C.12
/var/folders/z6/vpmk4_yd42j_9xbv3n5kw3wc0000gn/T//ccdAlt5o.s:2229   .text:00000784 _ZN2IR6zoomInEj
/var/folders/z6/vpmk4_yd42j_9xbv3n5kw3wc0000gn/T//ccdAlt5o.s:3163   .data:00000020 _ZZN2IR6zoomInEjE4C.15
/var/folders/z6/vpmk4_yd42j_9xbv3n5kw3wc0000gn/T//ccdAlt5o.s:2678   .text:00000900 _ZN2IR7zoomOutEj
/var/folders/z6/vpmk4_yd42j_9xbv3n5kw3wc0000gn/T//ccdAlt5o.s:3128   .data:00000000 _ZZN2IR7zoomOutEjE4C.19

UNDEFINED SYMBOLS
__divmodhi4
__floatsisf
__mulsf3
__ltsf2
__gtsf2
__divsf3
__fixunssfsi
__udivmodhi4
__do_copy_data
