   1               		.file	"Nokia_BW_LCD.cpp"
   2               	__SREG__ = 0x3f
   3               	__SP_H__ = 0x3e
   4               	__SP_L__ = 0x3d
   5               	__CCP__  = 0x34
   6               	__tmp_reg__ = 0
   7               	__zero_reg__ = 1
  15               	.Ltext0:
  16               	.global	_ZN3LCDC2Ev
  18               	_ZN3LCDC2Ev:
  19               	.LFB7:
  20               	.LM1:
  21               	.LVL0:
  22               	/* prologue: function */
  23               	/* frame size = 0 */
  24               	/* epilogue start */
  25               	.LM2:
  26 0000 0895      		ret
  27               	.LFE7:
  29               	.global	_ZN3LCDC1Ev
  31               	_ZN3LCDC1Ev:
  32               	.LFB8:
  33               	.LM3:
  34               	.LVL1:
  35               	/* prologue: function */
  36               	/* frame size = 0 */
  37               	/* epilogue start */
  38               	.LM4:
  39 0002 0895      		ret
  40               	.LFE8:
  42               	.global	_ZN3LCD8setPixelEhh
  44               	_ZN3LCD8setPixelEhh:
  45               	.LFB9:
  46               	.LM5:
  47               	.LVL2:
  48               	/* prologue: function */
  49               	/* frame size = 0 */
  50 0004 DC01      		movw r26,r24
  51               	.LM6:
  52 0006 6435      		cpi r22,lo8(84)
  53 0008 00F4      		brsh .L7
  54               	.LVL3:
  55 000a 4033      		cpi r20,lo8(48)
  56 000c 00F4      		brsh .L7
  57               	.LM7:
  58 000e 862F      		mov r24,r22
  59 0010 90E0      		ldi r25,lo8(0)
  60 0012 242F      		mov r18,r20
  61 0014 30E0      		ldi r19,lo8(0)
  62 0016 A901      		movw r20,r18
  63               	.LVL4:
  64 0018 73E0      		ldi r23,3
  65 001a 5595      	1:	asr r21
  66 001c 4795      		ror r20
  67 001e 7A95      		dec r23
  68 0020 01F4      		brne 1b
  69 0022 FC01      		movw r30,r24
  70 0024 EE0F      		lsl r30
  71 0026 FF1F      		rol r31
  72               	.LVL5:
  73 0028 E80F      		add r30,r24
  74 002a F91F      		adc r31,r25
  75 002c EE0F      		lsl r30
  76 002e FF1F      		rol r31
  77 0030 E40F      		add r30,r20
  78 0032 F51F      		adc r31,r21
  79 0034 EA0F      		add r30,r26
  80 0036 FB1F      		adc r31,r27
  81 0038 2770      		andi r18,lo8(7)
  82 003a 3070      		andi r19,hi8(7)
  83 003c 81E0      		ldi r24,lo8(1)
  84 003e 90E0      		ldi r25,hi8(1)
  85 0040 00C0      		rjmp 2f
  86 0042 880F      	1:	lsl r24
  87 0044 991F      		rol r25
  88 0046 2A95      	2:	dec r18
  89 0048 02F4      		brpl 1b
  90 004a 2081      		ld r18,Z
  91 004c 282B      		or r18,r24
  92 004e 2083      		st Z,r18
  93               	.LVL6:
  94               	.L7:
  95 0050 0895      		ret
  96               	.LFE9:
  98               	.global	_ZN3LCD10clearPixelEhh
 100               	_ZN3LCD10clearPixelEhh:
 101               	.LFB10:
 102               	.LM8:
 103               	.LVL7:
 104               	/* prologue: function */
 105               	/* frame size = 0 */
 106 0052 DC01      		movw r26,r24
 107               	.LM9:
 108 0054 6435      		cpi r22,lo8(84)
 109 0056 00F4      		brsh .L10
 110               	.LVL8:
 111 0058 4033      		cpi r20,lo8(48)
 112 005a 00F4      		brsh .L10
 113               	.LM10:
 114 005c 862F      		mov r24,r22
 115 005e 90E0      		ldi r25,lo8(0)
 116 0060 242F      		mov r18,r20
 117 0062 30E0      		ldi r19,lo8(0)
 118 0064 A901      		movw r20,r18
 119               	.LVL9:
 120 0066 73E0      		ldi r23,3
 121 0068 5595      	1:	asr r21
 122 006a 4795      		ror r20
 123 006c 7A95      		dec r23
 124 006e 01F4      		brne 1b
 125 0070 FC01      		movw r30,r24
 126 0072 EE0F      		lsl r30
 127 0074 FF1F      		rol r31
 128               	.LVL10:
 129 0076 E80F      		add r30,r24
 130 0078 F91F      		adc r31,r25
 131 007a EE0F      		lsl r30
 132 007c FF1F      		rol r31
 133 007e E40F      		add r30,r20
 134 0080 F51F      		adc r31,r21
 135 0082 EA0F      		add r30,r26
 136 0084 FB1F      		adc r31,r27
 137 0086 2770      		andi r18,lo8(7)
 138 0088 3070      		andi r19,hi8(7)
 139 008a 81E0      		ldi r24,lo8(1)
 140 008c 90E0      		ldi r25,hi8(1)
 141 008e 00C0      		rjmp 2f
 142 0090 880F      	1:	lsl r24
 143 0092 991F      		rol r25
 144 0094 2A95      	2:	dec r18
 145 0096 02F4      		brpl 1b
 146 0098 8095      		com r24
 147 009a 2081      		ld r18,Z
 148 009c 8223      		and r24,r18
 149 009e 8083      		st Z,r24
 150               	.LVL11:
 151               	.L10:
 152 00a0 0895      		ret
 153               	.LFE10:
 155               	.global	_ZN3LCD8xorPixelEhh
 157               	_ZN3LCD8xorPixelEhh:
 158               	.LFB11:
 159               	.LM11:
 160               	.LVL12:
 161               	/* prologue: function */
 162               	/* frame size = 0 */
 163 00a2 DC01      		movw r26,r24
 164 00a4 742F      		mov r23,r20
 165               	.LBB68:
 166               	.LBB69:
 167               	.LM12:
 168 00a6 242F      		mov r18,r20
 169 00a8 30E0      		ldi r19,lo8(0)
 170 00aa A901      		movw r20,r18
 171               	.LVL13:
 172 00ac 83E0      		ldi r24,3
 173 00ae 5595      	1:	asr r21
 174 00b0 4795      		ror r20
 175 00b2 8A95      		dec r24
 176 00b4 01F4      		brne 1b
 177               	.LVL14:
 178 00b6 862F      		mov r24,r22
 179 00b8 90E0      		ldi r25,lo8(0)
 180               	.LVL15:
 181 00ba FC01      		movw r30,r24
 182 00bc EE0F      		lsl r30
 183 00be FF1F      		rol r31
 184 00c0 E80F      		add r30,r24
 185 00c2 F91F      		adc r31,r25
 186 00c4 EE0F      		lsl r30
 187 00c6 FF1F      		rol r31
 188 00c8 E40F      		add r30,r20
 189 00ca F51F      		adc r31,r21
 190 00cc EA0F      		add r30,r26
 191 00ce FB1F      		adc r31,r27
 192 00d0 8081      		ld r24,Z
 193 00d2 90E0      		ldi r25,lo8(0)
 194               	.LVL16:
 195 00d4 2770      		andi r18,lo8(7)
 196 00d6 3070      		andi r19,hi8(7)
 197 00d8 00C0      		rjmp 2f
 198 00da 9595      	1:	asr r25
 199 00dc 8795      		ror r24
 200 00de 2A95      	2:	dec r18
 201 00e0 02F4      		brpl 1b
 202 00e2 80FF      		sbrs r24,0
 203 00e4 00C0      		rjmp .L12
 204               	.LBE69:
 205               	.LBE68:
 206               	.LM13:
 207 00e6 CD01      		movw r24,r26
 208 00e8 472F      		mov r20,r23
 209 00ea 0E94 0000 		call _ZN3LCD10clearPixelEhh
 210               	.LVL17:
 211 00ee 0895      		ret
 212               	.LVL18:
 213               	.L12:
 214               	.LM14:
 215 00f0 CD01      		movw r24,r26
 216 00f2 472F      		mov r20,r23
 217 00f4 0E94 0000 		call _ZN3LCD8setPixelEhh
 218               	.LVL19:
 219 00f8 0895      		ret
 220               	.LFE11:
 222               	.global	_ZN3LCD8getPixelEhh
 224               	_ZN3LCD8getPixelEhh:
 225               	.LFB12:
 226               	.LM15:
 227               	.LVL20:
 228               	/* prologue: function */
 229               	/* frame size = 0 */
 230               	.LM16:
 231 00fa 50E0      		ldi r21,lo8(0)
 232 00fc 9A01      		movw r18,r20
 233               	.LVL21:
 234 00fe B3E0      		ldi r27,3
 235 0100 3595      	1:	asr r19
 236 0102 2795      		ror r18
 237 0104 BA95      		dec r27
 238 0106 01F4      		brne 1b
 239 0108 70E0      		ldi r23,lo8(0)
 240               	.LVL22:
 241 010a FB01      		movw r30,r22
 242 010c EE0F      		lsl r30
 243 010e FF1F      		rol r31
 244 0110 E60F      		add r30,r22
 245 0112 F71F      		adc r31,r23
 246 0114 EE0F      		lsl r30
 247 0116 FF1F      		rol r31
 248               	.LVL23:
 249 0118 E20F      		add r30,r18
 250 011a F31F      		adc r31,r19
 251 011c E80F      		add r30,r24
 252 011e F91F      		adc r31,r25
 253 0120 8081      		ld r24,Z
 254               	.LVL24:
 255 0122 90E0      		ldi r25,lo8(0)
 256 0124 4770      		andi r20,lo8(7)
 257 0126 5070      		andi r21,hi8(7)
 258 0128 00C0      		rjmp 2f
 259 012a 9595      	1:	asr r25
 260 012c 8795      		ror r24
 261 012e 4A95      	2:	dec r20
 262 0130 02F4      		brpl 1b
 263               	.LM17:
 264 0132 8170      		andi r24,lo8(1)
 265               	/* epilogue start */
 266 0134 0895      		ret
 267               	.LFE12:
 269               	.global	_ZN3LCD17measureStringTinyEPc
 271               	_ZN3LCD17measureStringTinyEPc:
 272               	.LFB18:
 273               	.LM18:
 274               	.LVL25:
 275               	/* prologue: function */
 276               	/* frame size = 0 */
 277 0136 DB01      		movw r26,r22
 278               	.LBB70:
 279               	.LM19:
 280 0138 80E0      		ldi r24,lo8(0)
 281               	.LVL26:
 282               	.LBB71:
 283               	.LM20:
 284 013a 26E0      		ldi r18,lo8(6)
 285 013c 00C0      		rjmp .L18
 286               	.LVL27:
 287               	.L22:
 288               	.LBE71:
 289               	.LM21:
 290 013e 9032      		cpi r25,lo8(32)
 291 0140 01F4      		brne .L19
 292               	.LM22:
 293 0142 8E5F      		subi r24,lo8(-(2))
 294 0144 00C0      		rjmp .L20
 295               	.L19:
 296               	.LM23:
 297 0146 9E32      		cpi r25,lo8(46)
 298 0148 01F0      		breq .L20
 299               	.LM24:
 300 014a 9B35      		cpi r25,lo8(91)
 301 014c 00F0      		brlo .L21
 302 014e 9052      		subi r25,lo8(-(-32))
 303               	.L21:
 304               	.LBB72:
 305               	.LM25:
 306 0150 9154      		subi r25,lo8(-(-65))
 307 0152 929F      		mul r25,r18
 308 0154 F001      		movw r30,r0
 309 0156 1124      		clr r1
 310               	.LVL28:
 311 0158 E050      		subi r30,lo8(-(font4_5))
 312 015a F040      		sbci r31,hi8(-(font4_5))
 313               	/* #APP */
 314               	 ;  217 "src/Nokia_BW_LCD.cpp" 1
 315 015c E491      		lpm r30, Z
 316               		
 317               	 ;  0 "" 2
 318               	.LVL29:
 319               	/* #NOAPP */
 320               	.LBE72:
 321 015e 8F5F      		subi r24,lo8(-(1))
 322 0160 8E0F      		add r24,r30
 323               	.L20:
 324               	.LM26:
 325 0162 1196      		adiw r26,1
 326               	.LVL30:
 327               	.L18:
 328               	.LM27:
 329 0164 9C91      		ld r25,X
 330 0166 9923      		tst r25
 331 0168 01F4      		brne .L22
 332               	/* epilogue start */
 333               	.LBE70:
 334               	.LM28:
 335 016a 0895      		ret
 336               	.LFE18:
 338               	.global	_ZN3LCD13writeCharTinyEhhh
 340               	_ZN3LCD13writeCharTinyEhhh:
 341               	.LFB19:
 342               	.LM29:
 343               	.LVL31:
 344 016c 7F92      		push r7
 345 016e 8F92      		push r8
 346 0170 9F92      		push r9
 347 0172 AF92      		push r10
 348 0174 BF92      		push r11
 349 0176 CF92      		push r12
 350 0178 DF92      		push r13
 351 017a EF92      		push r14
 352 017c FF92      		push r15
 353 017e 0F93      		push r16
 354 0180 1F93      		push r17
 355 0182 CF93      		push r28
 356 0184 DF93      		push r29
 357               	/* prologue: function */
 358               	/* frame size = 0 */
 359 0186 4C01      		movw r8,r24
 360 0188 762E      		mov r7,r22
 361 018a A42E      		mov r10,r20
 362               	.LBB73:
 363               	.LM30:
 364 018c 2032      		cpi r18,lo8(32)
 365 018e 01F4      		brne .L25
 366               	.LVL32:
 367 0190 82E0      		ldi r24,lo8(2)
 368               	.LVL33:
 369 0192 00C0      		rjmp .L26
 370               	.LVL34:
 371               	.L25:
 372               	.LM31:
 373 0194 2E32      		cpi r18,lo8(46)
 374 0196 01F4      		brne .L27
 375 0198 80E0      		ldi r24,lo8(0)
 376               	.LVL35:
 377 019a 00C0      		rjmp .L26
 378               	.LVL36:
 379               	.L27:
 380               	.LM32:
 381 019c 2B35      		cpi r18,lo8(91)
 382 019e 00F0      		brlo .L28
 383 01a0 2052      		subi r18,lo8(-(-32))
 384               	.LVL37:
 385               	.L28:
 386               	.LBB74:
 387               	.LM33:
 388 01a2 2154      		subi r18,lo8(-(-65))
 389               	.LVL38:
 390 01a4 86E0      		ldi r24,lo8(6)
 391 01a6 289F      		mul r18,r24
 392 01a8 C001      		movw r24,r0
 393 01aa 1124      		clr r1
 394 01ac FC01      		movw r30,r24
 395 01ae E050      		subi r30,lo8(-(font4_5))
 396 01b0 F040      		sbci r31,hi8(-(font4_5))
 397               	/* #APP */
 398               	 ;  236 "src/Nokia_BW_LCD.cpp" 1
 399 01b2 B490      		lpm r11, Z
 400               		
 401               	 ;  0 "" 2
 402               	.LVL39:
 403               	/* #NOAPP */
 404 01b4 8C01      		movw r16,r24
 405 01b6 0050      		subi r16,lo8(-(font4_5+1))
 406 01b8 1040      		sbci r17,hi8(-(font4_5+1))
 407 01ba FF24      		clr r15
 408               	.LVL40:
 409 01bc 00C0      		rjmp .L29
 410               	.LVL41:
 411               	.L32:
 412               	.LBE74:
 413               	.LBB75:
 414               	.LM34:
 415 01be F801      		movw r30,r16
 416               	/* #APP */
 417               	 ;  239 "src/Nokia_BW_LCD.cpp" 1
 418 01c0 8491      		lpm r24, Z
 419               		
 420               	 ;  0 "" 2
 421               	.LVL42:
 422               	/* #NOAPP */
 423 01c2 C0E0      		ldi r28,lo8(0)
 424 01c4 D0E0      		ldi r29,hi8(0)
 425               	.LBE75:
 426               	.LM35:
 427 01c6 C82E      		mov r12,r24
 428 01c8 DD24      		clr r13
 429 01ca EF2C      		mov r14,r15
 430 01cc E70C      		add r14,r7
 431               	.LVL43:
 432               	.L31:
 433 01ce C601      		movw r24,r12
 434 01d0 0C2E      		mov r0,r28
 435 01d2 00C0      		rjmp 2f
 436 01d4 9595      	1:	asr r25
 437 01d6 8795      		ror r24
 438 01d8 0A94      	2:	dec r0
 439 01da 02F4      		brpl 1b
 440 01dc 80FF      		sbrs r24,0
 441 01de 00C0      		rjmp .L30
 442 01e0 4A2D      		mov r20,r10
 443 01e2 4C0F      		add r20,r28
 444 01e4 C401      		movw r24,r8
 445 01e6 6E2D      		mov r22,r14
 446 01e8 0E94 0000 		call _ZN3LCD8setPixelEhh
 447               	.LVL44:
 448               	.L30:
 449 01ec 2196      		adiw r28,1
 450               	.LM36:
 451 01ee C530      		cpi r28,5
 452 01f0 D105      		cpc r29,__zero_reg__
 453 01f2 01F4      		brne .L31
 454               	.LM37:
 455 01f4 F394      		inc r15
 456 01f6 0F5F      		subi r16,lo8(-(1))
 457 01f8 1F4F      		sbci r17,hi8(-(1))
 458               	.L29:
 459 01fa FB14      		cp r15,r11
 460 01fc 00F0      		brlo .L32
 461 01fe 8B2D      		mov r24,r11
 462               	.LVL45:
 463               	.L26:
 464               	.LVL46:
 465               	/* epilogue start */
 466               	.LBE73:
 467               	.LM38:
 468 0200 DF91      		pop r29
 469 0202 CF91      		pop r28
 470 0204 1F91      		pop r17
 471 0206 0F91      		pop r16
 472 0208 FF90      		pop r15
 473               	.LVL47:
 474 020a EF90      		pop r14
 475 020c DF90      		pop r13
 476               	.LVL48:
 477 020e CF90      		pop r12
 478               	.LVL49:
 479 0210 BF90      		pop r11
 480               	.LVL50:
 481 0212 AF90      		pop r10
 482               	.LVL51:
 483 0214 9F90      		pop r9
 484 0216 8F90      		pop r8
 485               	.LVL52:
 486 0218 7F90      		pop r7
 487               	.LVL53:
 488 021a 0895      		ret
 489               	.LFE19:
 491               	.global	_ZN3LCD15writeStringTinyEhhPc
 493               	_ZN3LCD15writeStringTinyEhhPc:
 494               	.LFB17:
 495               	.LM39:
 496               	.LVL54:
 497 021c EF92      		push r14
 498 021e FF92      		push r15
 499 0220 0F93      		push r16
 500 0222 1F93      		push r17
 501 0224 CF93      		push r28
 502 0226 DF93      		push r29
 503               	/* prologue: function */
 504               	/* frame size = 0 */
 505 0228 7C01      		movw r14,r24
 506 022a 162F      		mov r17,r22
 507 022c 042F      		mov r16,r20
 508 022e E901      		movw r28,r18
 509 0230 00C0      		rjmp .L36
 510               	.LVL55:
 511               	.L37:
 512               	.LM40:
 513 0232 C701      		movw r24,r14
 514 0234 612F      		mov r22,r17
 515 0236 402F      		mov r20,r16
 516 0238 0E94 0000 		call _ZN3LCD13writeCharTinyEhhh
 517 023c 8F5F      		subi r24,lo8(-(1))
 518 023e 180F      		add r17,r24
 519               	.LM41:
 520 0240 2196      		adiw r28,1
 521               	.LVL56:
 522               	.L36:
 523               	.LM42:
 524 0242 2881      		ld r18,Y
 525 0244 2223      		tst r18
 526 0246 01F4      		brne .L37
 527               	/* epilogue start */
 528               	.LM43:
 529 0248 DF91      		pop r29
 530 024a CF91      		pop r28
 531               	.LVL57:
 532 024c 1F91      		pop r17
 533               	.LVL58:
 534 024e 0F91      		pop r16
 535               	.LVL59:
 536 0250 FF90      		pop r15
 537 0252 EF90      		pop r14
 538               	.LVL60:
 539 0254 0895      		ret
 540               	.LFE17:
 542               	.global	_ZN3LCD9writeCharEhhh
 544               	_ZN3LCD9writeCharEhhh:
 545               	.LFB20:
 546               	.LM44:
 547               	.LVL61:
 548 0256 8F92      		push r8
 549 0258 9F92      		push r9
 550 025a AF92      		push r10
 551 025c BF92      		push r11
 552 025e CF92      		push r12
 553 0260 DF92      		push r13
 554 0262 EF92      		push r14
 555 0264 FF92      		push r15
 556 0266 0F93      		push r16
 557 0268 1F93      		push r17
 558 026a CF93      		push r28
 559 026c DF93      		push r29
 560               	/* prologue: function */
 561               	/* frame size = 0 */
 562 026e 4C01      		movw r8,r24
 563 0270 D62E      		mov r13,r22
 564 0272 C42E      		mov r12,r20
 565               	.LBB76:
 566               	.LBB77:
 567               	.LM45:
 568 0274 2052      		subi r18,lo8(-(-32))
 569               	.LVL62:
 570 0276 86E0      		ldi r24,lo8(6)
 571               	.LVL63:
 572 0278 289F      		mul r18,r24
 573 027a 9001      		movw r18,r0
 574 027c 1124      		clr r1
 575               	.LVL64:
 576 027e 8901      		movw r16,r18
 577 0280 0050      		subi r16,lo8(-(font6_8))
 578 0282 1040      		sbci r17,hi8(-(font6_8))
 579               	.LBE77:
 580               	.LM46:
 581 0284 80E0      		ldi r24,lo8(font6_8+6)
 582 0286 A82E      		mov r10,r24
 583 0288 80E0      		ldi r24,hi8(font6_8+6)
 584 028a B82E      		mov r11,r24
 585 028c A20E      		add r10,r18
 586 028e B31E      		adc r11,r19
 587               	.LVL65:
 588               	.L42:
 589               	.LBB78:
 590               	.LM47:
 591 0290 F801      		movw r30,r16
 592               	/* #APP */
 593               	 ;  259 "src/Nokia_BW_LCD.cpp" 1
 594 0292 8491      		lpm r24, Z
 595               		
 596               	 ;  0 "" 2
 597               	.LVL66:
 598               	/* #NOAPP */
 599 0294 C0E0      		ldi r28,lo8(0)
 600 0296 D0E0      		ldi r29,hi8(0)
 601               	.LBE78:
 602               	.LM48:
 603 0298 E82E      		mov r14,r24
 604 029a FF24      		clr r15
 605               	.LVL67:
 606               	.L41:
 607 029c C701      		movw r24,r14
 608 029e 0C2E      		mov r0,r28
 609 02a0 00C0      		rjmp 2f
 610 02a2 9595      	1:	asr r25
 611 02a4 8795      		ror r24
 612 02a6 0A94      	2:	dec r0
 613 02a8 02F4      		brpl 1b
 614 02aa 80FF      		sbrs r24,0
 615 02ac 00C0      		rjmp .L40
 616 02ae 4C2D      		mov r20,r12
 617 02b0 4C0F      		add r20,r28
 618 02b2 C401      		movw r24,r8
 619 02b4 6D2D      		mov r22,r13
 620 02b6 0E94 0000 		call _ZN3LCD8setPixelEhh
 621               	.LVL68:
 622               	.L40:
 623 02ba 2196      		adiw r28,1
 624               	.LM49:
 625 02bc C830      		cpi r28,8
 626 02be D105      		cpc r29,__zero_reg__
 627 02c0 01F4      		brne .L41
 628 02c2 0F5F      		subi r16,lo8(-(1))
 629 02c4 1F4F      		sbci r17,hi8(-(1))
 630 02c6 D394      		inc r13
 631               	.LM50:
 632 02c8 0A15      		cp r16,r10
 633 02ca 1B05      		cpc r17,r11
 634 02cc 01F4      		brne .L42
 635               	/* epilogue start */
 636               	.LBE76:
 637               	.LM51:
 638 02ce DF91      		pop r29
 639 02d0 CF91      		pop r28
 640 02d2 1F91      		pop r17
 641 02d4 0F91      		pop r16
 642 02d6 FF90      		pop r15
 643               	.LVL69:
 644 02d8 EF90      		pop r14
 645               	.LVL70:
 646 02da DF90      		pop r13
 647               	.LVL71:
 648 02dc CF90      		pop r12
 649               	.LVL72:
 650 02de BF90      		pop r11
 651 02e0 AF90      		pop r10
 652 02e2 9F90      		pop r9
 653 02e4 8F90      		pop r8
 654               	.LVL73:
 655 02e6 0895      		ret
 656               	.LFE20:
 658               	.global	_ZN3LCD9writeUintEhhj
 660               	_ZN3LCD9writeUintEhhj:
 661               	.LFB14:
 662               	.LM52:
 663               	.LVL74:
 664 02e8 CF92      		push r12
 665 02ea DF92      		push r13
 666 02ec EF92      		push r14
 667 02ee FF92      		push r15
 668 02f0 0F93      		push r16
 669 02f2 1F93      		push r17
 670 02f4 CF93      		push r28
 671 02f6 DF93      		push r29
 672               	/* prologue: function */
 673               	/* frame size = 0 */
 674 02f8 6C01      		movw r12,r24
 675 02fa F62E      		mov r15,r22
 676 02fc E42E      		mov r14,r20
 677 02fe E901      		movw r28,r18
 678               	.LM53:
 679 0300 2A30      		cpi r18,10
 680 0302 3105      		cpc r19,__zero_reg__
 681 0304 00F0      		brlo .L49
 682               	.LVL75:
 683 0306 86E0      		ldi r24,lo8(6)
 684 0308 F80E      		add r15,r24
 685               	.LM54:
 686 030a 2436      		cpi r18,100
 687 030c 3105      		cpc r19,__zero_reg__
 688 030e 00F0      		brlo .L49
 689 0310 F80E      		add r15,r24
 690               	.LM55:
 691 0312 83E0      		ldi r24,hi8(1000)
 692 0314 283E      		cpi r18,lo8(1000)
 693 0316 3807      		cpc r19,r24
 694 0318 00F0      		brlo .L49
 695 031a 86E0      		ldi r24,lo8(6)
 696 031c F80E      		add r15,r24
 697               	.LM56:
 698 031e 87E2      		ldi r24,hi8(10000)
 699 0320 2031      		cpi r18,lo8(10000)
 700 0322 3807      		cpc r19,r24
 701 0324 00F0      		brlo .L49
 702 0326 86E0      		ldi r24,lo8(6)
 703 0328 F80E      		add r15,r24
 704               	.LVL76:
 705               	.L49:
 706               	.LM57:
 707 032a CE01      		movw r24,r28
 708 032c 6AE0      		ldi r22,lo8(10)
 709 032e 70E0      		ldi r23,hi8(10)
 710 0330 0E94 0000 		call __udivmodhi4
 711 0334 8C01      		movw r16,r24
 712 0336 282F      		mov r18,r24
 713               	.LVL77:
 714 0338 205D      		subi r18,lo8(-(48))
 715 033a C601      		movw r24,r12
 716 033c 6F2D      		mov r22,r15
 717 033e 4E2D      		mov r20,r14
 718 0340 0E94 0000 		call _ZN3LCD9writeCharEhhh
 719               	.LM58:
 720 0344 CE01      		movw r24,r28
 721 0346 801B      		sub r24,r16
 722 0348 910B      		sbc r25,r17
 723 034a 6AE0      		ldi r22,lo8(10)
 724 034c 70E0      		ldi r23,hi8(10)
 725 034e 0E94 0000 		call __udivmodhi4
 726 0352 EB01      		movw r28,r22
 727               	.LM59:
 728 0354 8AEF      		ldi r24,lo8(-6)
 729 0356 F80E      		add r15,r24
 730               	.LM60:
 731 0358 6115      		cp r22,__zero_reg__
 732 035a 7105      		cpc r23,__zero_reg__
 733 035c 01F4      		brne .L49
 734               	.LVL78:
 735               	/* epilogue start */
 736               	.LM61:
 737 035e DF91      		pop r29
 738 0360 CF91      		pop r28
 739 0362 1F91      		pop r17
 740 0364 0F91      		pop r16
 741 0366 FF90      		pop r15
 742               	.LVL79:
 743 0368 EF90      		pop r14
 744               	.LVL80:
 745 036a DF90      		pop r13
 746 036c CF90      		pop r12
 747               	.LVL81:
 748 036e 0895      		ret
 749               	.LFE14:
 751               	.global	_ZN3LCD11writeStringEhhPc
 753               	_ZN3LCD11writeStringEhhPc:
 754               	.LFB13:
 755               	.LM62:
 756               	.LVL82:
 757 0370 EF92      		push r14
 758 0372 FF92      		push r15
 759 0374 0F93      		push r16
 760 0376 1F93      		push r17
 761 0378 CF93      		push r28
 762 037a DF93      		push r29
 763               	/* prologue: function */
 764               	/* frame size = 0 */
 765 037c 7C01      		movw r14,r24
 766 037e 162F      		mov r17,r22
 767 0380 042F      		mov r16,r20
 768 0382 E901      		movw r28,r18
 769 0384 00C0      		rjmp .L52
 770               	.LVL83:
 771               	.L53:
 772               	.LM63:
 773 0386 C701      		movw r24,r14
 774 0388 612F      		mov r22,r17
 775 038a 402F      		mov r20,r16
 776 038c 0E94 0000 		call _ZN3LCD9writeCharEhhh
 777               	.LM64:
 778 0390 1A5F      		subi r17,lo8(-(6))
 779               	.LM65:
 780 0392 2196      		adiw r28,1
 781               	.LVL84:
 782               	.L52:
 783               	.LM66:
 784 0394 2881      		ld r18,Y
 785 0396 2223      		tst r18
 786 0398 01F4      		brne .L53
 787               	/* epilogue start */
 788               	.LM67:
 789 039a DF91      		pop r29
 790 039c CF91      		pop r28
 791               	.LVL85:
 792 039e 1F91      		pop r17
 793               	.LVL86:
 794 03a0 0F91      		pop r16
 795               	.LVL87:
 796 03a2 FF90      		pop r15
 797 03a4 EF90      		pop r14
 798               	.LVL88:
 799 03a6 0895      		ret
 800               	.LFE13:
 802               	.global	_ZN3LCD12writeCharBigEhhh
 804               	_ZN3LCD12writeCharBigEhhh:
 805               	.LFB21:
 806               	.LM68:
 807               	.LVL89:
 808 03a8 3F92      		push r3
 809 03aa 4F92      		push r4
 810 03ac 5F92      		push r5
 811 03ae 6F92      		push r6
 812 03b0 7F92      		push r7
 813 03b2 8F92      		push r8
 814 03b4 9F92      		push r9
 815 03b6 AF92      		push r10
 816 03b8 BF92      		push r11
 817 03ba CF92      		push r12
 818 03bc DF92      		push r13
 819 03be EF92      		push r14
 820 03c0 FF92      		push r15
 821 03c2 0F93      		push r16
 822 03c4 1F93      		push r17
 823 03c6 CF93      		push r28
 824 03c8 DF93      		push r29
 825               	/* prologue: function */
 826               	/* frame size = 0 */
 827 03ca 2C01      		movw r4,r24
 828 03cc 362E      		mov r3,r22
 829 03ce 642E      		mov r6,r20
 830               	.LBB79:
 831               	.LM69:
 832 03d0 2E32      		cpi r18,lo8(46)
 833 03d2 01F4      		brne .L56
 834               	.LVL90:
 835 03d4 2AE0      		ldi r18,lo8(10)
 836               	.LVL91:
 837 03d6 00C0      		rjmp .L57
 838               	.L56:
 839               	.LM70:
 840 03d8 2B32      		cpi r18,lo8(43)
 841 03da 01F4      		brne .L58
 842 03dc 2BE0      		ldi r18,lo8(11)
 843               	.LVL92:
 844 03de 00C0      		rjmp .L57
 845               	.L58:
 846               	.LM71:
 847 03e0 2D32      		cpi r18,lo8(45)
 848 03e2 01F4      		brne .L59
 849 03e4 2CE0      		ldi r18,lo8(12)
 850               	.LVL93:
 851 03e6 00C0      		rjmp .L57
 852               	.L59:
 853               	.LM72:
 854 03e8 2F70      		andi r18,lo8(15)
 855               	.LVL94:
 856               	.L57:
 857               	.LBB80:
 858               	.LM73:
 859 03ea 83E0      		ldi r24,lo8(3)
 860 03ec 289F      		mul r18,r24
 861 03ee C001      		movw r24,r0
 862 03f0 1124      		clr r1
 863 03f2 34E0      		ldi r19,4
 864 03f4 880F      	1:	lsl r24
 865 03f6 991F      		rol r25
 866 03f8 3A95      		dec r19
 867 03fa 01F4      		brne 1b
 868 03fc 20E0      		ldi r18,lo8(big_number)
 869 03fe C22E      		mov r12,r18
 870 0400 20E0      		ldi r18,hi8(big_number)
 871 0402 D22E      		mov r13,r18
 872               	.LVL95:
 873 0404 C80E      		add r12,r24
 874 0406 D91E      		adc r13,r25
 875               	.LBE80:
 876               	.LM74:
 877 0408 5C01      		movw r10,r24
 878 040a 80E0      		ldi r24,lo8(big_number+48)
 879 040c 90E0      		ldi r25,hi8(big_number+48)
 880 040e A80E      		add r10,r24
 881 0410 B91E      		adc r11,r25
 882 0412 00C0      		rjmp .L60
 883               	.LVL96:
 884               	.L63:
 885               	.LBB81:
 886               	.LM75:
 887 0414 F701      		movw r30,r14
 888               	/* #APP */
 889               	 ;  289 "src/Nokia_BW_LCD.cpp" 1
 890 0416 8491      		lpm r24, Z
 891               		
 892               	 ;  0 "" 2
 893               	.LVL97:
 894               	/* #NOAPP */
 895 0418 C0E0      		ldi r28,lo8(0)
 896 041a D0E0      		ldi r29,hi8(0)
 897               	.LBE81:
 898               	.LM76:
 899 041c 882E      		mov r8,r24
 900 041e 9924      		clr r9
 901 0420 732C      		mov r7,r3
 902 0422 700E      		add r7,r16
 903               	.LVL98:
 904               	.L62:
 905 0424 C401      		movw r24,r8
 906 0426 0C2E      		mov r0,r28
 907 0428 00C0      		rjmp 2f
 908 042a 9595      	1:	asr r25
 909 042c 8795      		ror r24
 910 042e 0A94      	2:	dec r0
 911 0430 02F4      		brpl 1b
 912 0432 80FF      		sbrs r24,0
 913 0434 00C0      		rjmp .L61
 914 0436 462D      		mov r20,r6
 915 0438 4C0F      		add r20,r28
 916 043a C201      		movw r24,r4
 917 043c 672D      		mov r22,r7
 918 043e 0E94 0000 		call _ZN3LCD8setPixelEhh
 919               	.LVL99:
 920               	.L61:
 921 0442 2196      		adiw r28,1
 922               	.LM77:
 923 0444 C830      		cpi r28,8
 924 0446 D105      		cpc r29,__zero_reg__
 925 0448 01F4      		brne .L62
 926 044a 0F5F      		subi r16,lo8(-(1))
 927 044c 1F4F      		sbci r17,hi8(-(1))
 928 044e 0894      		sec
 929 0450 E11C      		adc r14,__zero_reg__
 930 0452 F11C      		adc r15,__zero_reg__
 931               	.LM78:
 932 0454 0031      		cpi r16,16
 933 0456 1105      		cpc r17,__zero_reg__
 934 0458 01F4      		brne .L63
 935 045a F8E0      		ldi r31,lo8(8)
 936 045c 6F0E      		add r6,r31
 937 045e 80E1      		ldi r24,lo8(16)
 938 0460 90E0      		ldi r25,hi8(16)
 939 0462 C80E      		add r12,r24
 940 0464 D91E      		adc r13,r25
 941               	.LM79:
 942 0466 CA14      		cp r12,r10
 943 0468 DB04      		cpc r13,r11
 944 046a 01F0      		breq .L65
 945               	.LVL100:
 946               	.L60:
 947 046c 7601      		movw r14,r12
 948 046e 00E0      		ldi r16,lo8(0)
 949 0470 10E0      		ldi r17,hi8(0)
 950 0472 00C0      		rjmp .L63
 951               	.LVL101:
 952               	.L65:
 953               	/* epilogue start */
 954               	.LBE79:
 955               	.LM80:
 956 0474 DF91      		pop r29
 957 0476 CF91      		pop r28
 958 0478 1F91      		pop r17
 959 047a 0F91      		pop r16
 960 047c FF90      		pop r15
 961 047e EF90      		pop r14
 962 0480 DF90      		pop r13
 963 0482 CF90      		pop r12
 964 0484 BF90      		pop r11
 965 0486 AF90      		pop r10
 966 0488 9F90      		pop r9
 967               	.LVL102:
 968 048a 8F90      		pop r8
 969               	.LVL103:
 970 048c 7F90      		pop r7
 971 048e 6F90      		pop r6
 972               	.LVL104:
 973 0490 5F90      		pop r5
 974 0492 4F90      		pop r4
 975               	.LVL105:
 976 0494 3F90      		pop r3
 977               	.LVL106:
 978 0496 0895      		ret
 979               	.LFE21:
 981               	.global	_ZN3LCD14writeStringBigEhhPc
 983               	_ZN3LCD14writeStringBigEhhPc:
 984               	.LFB16:
 985               	.LM81:
 986               	.LVL107:
 987 0498 EF92      		push r14
 988 049a FF92      		push r15
 989 049c 0F93      		push r16
 990 049e 1F93      		push r17
 991 04a0 CF93      		push r28
 992 04a2 DF93      		push r29
 993               	/* prologue: function */
 994               	/* frame size = 0 */
 995 04a4 7C01      		movw r14,r24
 996 04a6 162F      		mov r17,r22
 997 04a8 042F      		mov r16,r20
 998 04aa E901      		movw r28,r18
 999 04ac 00C0      		rjmp .L69
 1000               	.LVL108:
 1001               	.L70:
 1002               	.LM82:
 1003 04ae C701      		movw r24,r14
 1004 04b0 612F      		mov r22,r17
 1005 04b2 402F      		mov r20,r16
 1006 04b4 0E94 0000 		call _ZN3LCD12writeCharBigEhhh
 1007               	.LM83:
 1008 04b8 105F      		subi r17,lo8(-(16))
 1009               	.LM84:
 1010 04ba 2196      		adiw r28,1
 1011               	.LVL109:
 1012               	.L69:
 1013               	.LM85:
 1014 04bc 2881      		ld r18,Y
 1015 04be 2223      		tst r18
 1016 04c0 01F4      		brne .L70
 1017               	/* epilogue start */
 1018               	.LM86:
 1019 04c2 DF91      		pop r29
 1020 04c4 CF91      		pop r28
 1021               	.LVL110:
 1022 04c6 1F91      		pop r17
 1023               	.LVL111:
 1024 04c8 0F91      		pop r16
 1025               	.LVL112:
 1026 04ca FF90      		pop r15
 1027 04cc EF90      		pop r14
 1028               	.LVL113:
 1029 04ce 0895      		ret
 1030               	.LFE16:
 1032               	.global	_ZN3LCD5pixelEhhc
 1034               	_ZN3LCD5pixelEhhc:
 1035               	.LFB23:
 1036               	.LM87:
 1037               	.LVL114:
 1038               	/* prologue: function */
 1039               	/* frame size = 0 */
 1040               	.LM88:
 1041 04d0 2223      		tst r18
 1042 04d2 01F0      		breq .L74
 1043 04d4 2130      		cpi r18,lo8(1)
 1044 04d6 01F4      		brne .L77
 1045               	.LM89:
 1046 04d8 0E94 0000 		call _ZN3LCD8setPixelEhh
 1047               	.LVL115:
 1048 04dc 0895      		ret
 1049               	.LVL116:
 1050               	.L74:
 1051               	.LM90:
 1052 04de 0E94 0000 		call _ZN3LCD10clearPixelEhh
 1053               	.LVL117:
 1054               	.L77:
 1055 04e2 0895      		ret
 1056               	.LFE23:
 1058               	.global	_ZN3LCD8drawLineEhhhh
 1060               	_ZN3LCD8drawLineEhhhh:
 1061               	.LFB24:
 1062               	.LM91:
 1063               	.LVL118:
 1064 04e4 AF92      		push r10
 1065 04e6 BF92      		push r11
 1066 04e8 CF92      		push r12
 1067 04ea DF92      		push r13
 1068 04ec EF92      		push r14
 1069 04ee FF92      		push r15
 1070 04f0 0F93      		push r16
 1071               	.LVL119:
 1072 04f2 1F93      		push r17
 1073 04f4 CF93      		push r28
 1074 04f6 DF93      		push r29
 1075               	/* prologue: function */
 1076               	/* frame size = 0 */
 1077 04f8 EC01      		movw r28,r24
 1078 04fa C62E      		mov r12,r22
 1079 04fc D42E      		mov r13,r20
 1080 04fe F22E      		mov r15,r18
 1081               	.LBB82:
 1082               	.LM92:
 1083 0500 F61A      		sub r15,r22
 1084               	.LVL120:
 1085               	.LM93:
 1086 0502 041B      		sub r16,r20
 1087               	.LVL121:
 1088 0504 AF2C      		mov r10,r15
 1089 0506 FF20      		tst r15
 1090 0508 01F0      		breq .L79
 1091               	.LVL122:
 1092 050a AA24      		clr r10
 1093 050c A394      		inc r10
 1094               	.LVL123:
 1095               	.L79:
 1096 050e B02E      		mov r11,r16
 1097 0510 0023      		tst r16
 1098 0512 01F0      		breq .L80
 1099 0514 BB24      		clr r11
 1100 0516 B394      		inc r11
 1101               	.LVL124:
 1102               	.L80:
 1103               	.LM94:
 1104 0518 CE01      		movw r24,r28
 1105 051a 6C2D      		mov r22,r12
 1106               	.LVL125:
 1107 051c 4D2D      		mov r20,r13
 1108               	.LVL126:
 1109 051e 0E94 0000 		call _ZN3LCD8setPixelEhh
 1110               	.LM95:
 1111 0522 F016      		cp r15,r16
 1112 0524 00F0      		brlo .L81
 1113               	.LVL127:
 1114               	.LM96:
 1115 0526 1F2D      		mov r17,r15
 1116               	.LVL128:
 1117 0528 1695      		lsr r17
 1118 052a EE24      		clr r14
 1119               	.LVL129:
 1120 052c 00C0      		rjmp .L82
 1121               	.L84:
 1122               	.LM97:
 1123 052e 100F      		add r17,r16
 1124               	.LM98:
 1125 0530 1F15      		cp r17,r15
 1126 0532 00F0      		brlo .L83
 1127               	.LM99:
 1128 0534 1F19      		sub r17,r15
 1129               	.LM100:
 1130 0536 DB0C      		add r13,r11
 1131               	.L83:
 1132               	.LM101:
 1133 0538 CA0C      		add r12,r10
 1134               	.LM102:
 1135 053a CE01      		movw r24,r28
 1136 053c 6C2D      		mov r22,r12
 1137 053e 4D2D      		mov r20,r13
 1138 0540 0E94 0000 		call _ZN3LCD8setPixelEhh
 1139               	.LM103:
 1140 0544 E394      		inc r14
 1141               	.LVL130:
 1142               	.L82:
 1143 0546 EF14      		cp r14,r15
 1144 0548 00F0      		brlo .L84
 1145               	.LVL131:
 1146 054a 00C0      		rjmp .L88
 1147               	.LVL132:
 1148               	.L81:
 1149               	.LM104:
 1150 054c 102F      		mov r17,r16
 1151               	.LVL133:
 1152 054e 1695      		lsr r17
 1153 0550 EE24      		clr r14
 1154               	.LVL134:
 1155               	.L87:
 1156               	.LM105:
 1157 0552 1F0D      		add r17,r15
 1158               	.LM106:
 1159 0554 1017      		cp r17,r16
 1160 0556 00F0      		brlo .L86
 1161               	.LM107:
 1162 0558 101B      		sub r17,r16
 1163               	.LM108:
 1164 055a CA0C      		add r12,r10
 1165               	.L86:
 1166               	.LM109:
 1167 055c DB0C      		add r13,r11
 1168               	.LM110:
 1169 055e CE01      		movw r24,r28
 1170 0560 6C2D      		mov r22,r12
 1171 0562 4D2D      		mov r20,r13
 1172 0564 0E94 0000 		call _ZN3LCD8setPixelEhh
 1173               	.LM111:
 1174 0568 E394      		inc r14
 1175 056a E016      		cp r14,r16
 1176 056c 00F0      		brlo .L87
 1177               	.LVL135:
 1178               	.L88:
 1179               	/* epilogue start */
 1180               	.LBE82:
 1181               	.LM112:
 1182 056e DF91      		pop r29
 1183 0570 CF91      		pop r28
 1184               	.LVL136:
 1185 0572 1F91      		pop r17
 1186               	.LVL137:
 1187 0574 0F91      		pop r16
 1188               	.LVL138:
 1189 0576 FF90      		pop r15
 1190               	.LVL139:
 1191 0578 EF90      		pop r14
 1192               	.LVL140:
 1193 057a DF90      		pop r13
 1194               	.LVL141:
 1195 057c CF90      		pop r12
 1196               	.LVL142:
 1197 057e BF90      		pop r11
 1198               	.LVL143:
 1199 0580 AF90      		pop r10
 1200               	.LVL144:
 1201 0582 0895      		ret
 1202               	.LFE24:
 1204               	.global	_ZN3LCD7drawBoxEhhhh
 1206               	_ZN3LCD7drawBoxEhhhh:
 1207               	.LFB22:
 1208               	.LM113:
 1209               	.LVL145:
 1210 0584 BF92      		push r11
 1211 0586 CF92      		push r12
 1212 0588 DF92      		push r13
 1213 058a EF92      		push r14
 1214 058c FF92      		push r15
 1215 058e 0F93      		push r16
 1216               	.LVL146:
 1217 0590 1F93      		push r17
 1218               	/* prologue: function */
 1219               	/* frame size = 0 */
 1220 0592 7C01      		movw r14,r24
 1221 0594 D62E      		mov r13,r22
 1222 0596 142F      		mov r17,r20
 1223 0598 C22E      		mov r12,r18
 1224 059a B02E      		mov r11,r16
 1225               	.LVL147:
 1226               	.LM114:
 1227 059c 012F      		mov r16,r17
 1228               	.LVL148:
 1229 059e 0E94 0000 		call _ZN3LCD8drawLineEhhhh
 1230               	.LVL149:
 1231               	.LM115:
 1232 05a2 C701      		movw r24,r14
 1233 05a4 6C2D      		mov r22,r12
 1234 05a6 412F      		mov r20,r17
 1235 05a8 2C2D      		mov r18,r12
 1236 05aa 0B2D      		mov r16,r11
 1237 05ac 0E94 0000 		call _ZN3LCD8drawLineEhhhh
 1238               	.LM116:
 1239 05b0 C701      		movw r24,r14
 1240 05b2 6D2D      		mov r22,r13
 1241 05b4 412F      		mov r20,r17
 1242 05b6 2D2D      		mov r18,r13
 1243 05b8 0E94 0000 		call _ZN3LCD8drawLineEhhhh
 1244               	.LM117:
 1245 05bc C701      		movw r24,r14
 1246 05be 6D2D      		mov r22,r13
 1247 05c0 4B2D      		mov r20,r11
 1248 05c2 2C2D      		mov r18,r12
 1249 05c4 0E94 0000 		call _ZN3LCD8drawLineEhhhh
 1250               	/* epilogue start */
 1251               	.LM118:
 1252 05c8 1F91      		pop r17
 1253               	.LVL150:
 1254 05ca 0F91      		pop r16
 1255 05cc FF90      		pop r15
 1256 05ce EF90      		pop r14
 1257               	.LVL151:
 1258 05d0 DF90      		pop r13
 1259               	.LVL152:
 1260 05d2 CF90      		pop r12
 1261               	.LVL153:
 1262 05d4 BF90      		pop r11
 1263               	.LVL154:
 1264 05d6 0895      		ret
 1265               	.LFE22:
 1267               	.global	_ZN3LCD3sgnEc
 1269               	_ZN3LCD3sgnEc:
 1270               	.LFB25:
 1271               	.LM119:
 1272               	.LVL155:
 1273               	/* prologue: function */
 1274               	/* frame size = 0 */
 1275               	.LM120:
 1276 05d8 6111      		cpse r22,__zero_reg__
 1277 05da 61E0      		ldi r22,lo8(1)
 1278               	.LVL156:
 1279               	.L93:
 1280               	.LM121:
 1281 05dc 862F      		mov r24,r22
 1282               	.LVL157:
 1283               	/* epilogue start */
 1284 05de 0895      		ret
 1285               	.LFE25:
 1287               	.global	_ZN3LCD13drawHighlightEhhhh
 1289               	_ZN3LCD13drawHighlightEhhhh:
 1290               	.LFB26:
 1291               	.LM122:
 1292               	.LVL158:
 1293 05e0 DF92      		push r13
 1294 05e2 EF92      		push r14
 1295 05e4 FF92      		push r15
 1296 05e6 0F93      		push r16
 1297               	.LVL159:
 1298 05e8 1F93      		push r17
 1299 05ea CF93      		push r28
 1300 05ec DF93      		push r29
 1301               	/* prologue: function */
 1302               	/* frame size = 0 */
 1303 05ee EC01      		movw r28,r24
 1304 05f0 D42E      		mov r13,r20
 1305 05f2 E22E      		mov r14,r18
 1306 05f4 F02E      		mov r15,r16
 1307               	.LVL160:
 1308               	.LM123:
 1309 05f6 062F      		mov r16,r22
 1310               	.LVL161:
 1311 05f8 00C0      		rjmp .L96
 1312               	.LVL162:
 1313               	.L97:
 1314               	.LBB83:
 1315               	.LM124:
 1316 05fa CE01      		movw r24,r28
 1317 05fc 602F      		mov r22,r16
 1318               	.LVL163:
 1319 05fe 412F      		mov r20,r17
 1320 0600 0E94 0000 		call _ZN3LCD8xorPixelEhh
 1321               	.LM125:
 1322 0604 1F5F      		subi r17,lo8(-(1))
 1323               	.LVL164:
 1324               	.L99:
 1325 0606 F116      		cp r15,r17
 1326 0608 00F4      		brsh .L97
 1327               	.LM126:
 1328 060a 0F5F      		subi r16,lo8(-(1))
 1329               	.L96:
 1330 060c E016      		cp r14,r16
 1331 060e 00F0      		brlo .L100
 1332 0610 1D2D      		mov r17,r13
 1333 0612 00C0      		rjmp .L99
 1334               	.L100:
 1335               	/* epilogue start */
 1336               	.LBE83:
 1337               	.LM127:
 1338 0614 DF91      		pop r29
 1339 0616 CF91      		pop r28
 1340               	.LVL165:
 1341 0618 1F91      		pop r17
 1342               	.LVL166:
 1343 061a 0F91      		pop r16
 1344               	.LVL167:
 1345 061c FF90      		pop r15
 1346               	.LVL168:
 1347 061e EF90      		pop r14
 1348               	.LVL169:
 1349 0620 DF90      		pop r13
 1350               	.LVL170:
 1351 0622 0895      		ret
 1352               	.LFE26:
 1354               	.global	_ZN3LCD8eraseBoxEhhhh
 1356               	_ZN3LCD8eraseBoxEhhhh:
 1357               	.LFB27:
 1358               	.LM128:
 1359               	.LVL171:
 1360 0624 DF92      		push r13
 1361 0626 EF92      		push r14
 1362 0628 FF92      		push r15
 1363 062a 0F93      		push r16
 1364               	.LVL172:
 1365 062c 1F93      		push r17
 1366 062e CF93      		push r28
 1367 0630 DF93      		push r29
 1368               	/* prologue: function */
 1369               	/* frame size = 0 */
 1370 0632 EC01      		movw r28,r24
 1371 0634 D42E      		mov r13,r20
 1372 0636 E22E      		mov r14,r18
 1373 0638 F02E      		mov r15,r16
 1374               	.LVL173:
 1375               	.LM129:
 1376 063a 062F      		mov r16,r22
 1377               	.LVL174:
 1378 063c 00C0      		rjmp .L102
 1379               	.LVL175:
 1380               	.L103:
 1381               	.LBB84:
 1382               	.LM130:
 1383 063e CE01      		movw r24,r28
 1384 0640 602F      		mov r22,r16
 1385               	.LVL176:
 1386 0642 412F      		mov r20,r17
 1387 0644 0E94 0000 		call _ZN3LCD10clearPixelEhh
 1388               	.LM131:
 1389 0648 1F5F      		subi r17,lo8(-(1))
 1390               	.LVL177:
 1391               	.L105:
 1392 064a F116      		cp r15,r17
 1393 064c 00F4      		brsh .L103
 1394               	.LM132:
 1395 064e 0F5F      		subi r16,lo8(-(1))
 1396               	.L102:
 1397 0650 E016      		cp r14,r16
 1398 0652 00F0      		brlo .L106
 1399 0654 1D2D      		mov r17,r13
 1400 0656 00C0      		rjmp .L105
 1401               	.L106:
 1402               	/* epilogue start */
 1403               	.LBE84:
 1404               	.LM133:
 1405 0658 DF91      		pop r29
 1406 065a CF91      		pop r28
 1407               	.LVL178:
 1408 065c 1F91      		pop r17
 1409               	.LVL179:
 1410 065e 0F91      		pop r16
 1411               	.LVL180:
 1412 0660 FF90      		pop r15
 1413               	.LVL181:
 1414 0662 EF90      		pop r14
 1415               	.LVL182:
 1416 0664 DF90      		pop r13
 1417               	.LVL183:
 1418 0666 0895      		ret
 1419               	.LFE27:
 1421               	.global	_ZN3LCD11writeNumberEhhjhh
 1423               	_ZN3LCD11writeNumberEhhjhh:
 1424               	.LFB15:
 1425               	.LM134:
 1426               	.LVL184:
 1427 0668 8F92      		push r8
 1428 066a 9F92      		push r9
 1429 066c AF92      		push r10
 1430 066e BF92      		push r11
 1431 0670 CF92      		push r12
 1432 0672 DF92      		push r13
 1433 0674 EF92      		push r14
 1434               	.LVL185:
 1435 0676 FF92      		push r15
 1436 0678 0F93      		push r16
 1437               	.LVL186:
 1438 067a 1F93      		push r17
 1439 067c CF93      		push r28
 1440 067e DF93      		push r29
 1441               	/* prologue: function */
 1442               	/* frame size = 0 */
 1443 0680 4C01      		movw r8,r24
 1444 0682 D62E      		mov r13,r22
 1445 0684 C42E      		mov r12,r20
 1446 0686 5901      		movw r10,r18
 1447 0688 8E2D      		mov r24,r14
 1448               	.LVL187:
 1449               	.LBB85:
 1450               	.LM135:
 1451 068a 8235      		cpi r24,lo8(82)
 1452 068c 01F4      		brne .L108
 1453               	.LVL188:
 1454               	.LM136:
 1455 068e 3AEF      		ldi r19,lo8(-6)
 1456 0690 D30E      		add r13,r19
 1457 0692 00C0      		rjmp .L109
 1458               	.LVL189:
 1459               	.L108:
 1460               	.LM137:
 1461 0694 2A30      		cpi r18,10
 1462 0696 3105      		cpc r19,__zero_reg__
 1463               	.LVL190:
 1464 0698 00F0      		brlo .L109
 1465               	.LVL191:
 1466 069a 36E0      		ldi r19,lo8(6)
 1467 069c D30E      		add r13,r19
 1468               	.LM138:
 1469 069e 84E6      		ldi r24,lo8(100)
 1470 06a0 A816      		cp r10,r24
 1471 06a2 B104      		cpc r11,__zero_reg__
 1472 06a4 00F0      		brlo .L109
 1473               	.LVL192:
 1474 06a6 D30E      		add r13,r19
 1475               	.LM139:
 1476 06a8 38EE      		ldi r19,lo8(1000)
 1477 06aa A316      		cp r10,r19
 1478 06ac 33E0      		ldi r19,hi8(1000)
 1479 06ae B306      		cpc r11,r19
 1480 06b0 00F0      		brlo .L109
 1481 06b2 86E0      		ldi r24,lo8(6)
 1482 06b4 D80E      		add r13,r24
 1483               	.LM140:
 1484 06b6 30E1      		ldi r19,lo8(10000)
 1485 06b8 A316      		cp r10,r19
 1486 06ba 37E2      		ldi r19,hi8(10000)
 1487 06bc B306      		cpc r11,r19
 1488 06be 00F0      		brlo .L109
 1489 06c0 D80E      		add r13,r24
 1490               	.LVL193:
 1491               	.L109:
 1492               	.LM141:
 1493 06c2 0535      		cpi r16,lo8(85)
 1494               	.LVL194:
 1495 06c4 01F4      		brne .L110
 1496 06c6 FF24      		clr r15
 1497               	.LVL195:
 1498               	.L111:
 1499               	.LM142:
 1500 06c8 C501      		movw r24,r10
 1501 06ca 6AE0      		ldi r22,lo8(10)
 1502 06cc 70E0      		ldi r23,hi8(10)
 1503 06ce 0E94 0000 		call __udivmodhi4
 1504 06d2 8C01      		movw r16,r24
 1505               	.LVL196:
 1506 06d4 282F      		mov r18,r24
 1507               	.LVL197:
 1508 06d6 205D      		subi r18,lo8(-(48))
 1509 06d8 C401      		movw r24,r8
 1510 06da 6D2D      		mov r22,r13
 1511 06dc 4C2D      		mov r20,r12
 1512 06de 0E94 0000 		call _ZN3LCD9writeCharEhhh
 1513               	.LM143:
 1514 06e2 C501      		movw r24,r10
 1515 06e4 801B      		sub r24,r16
 1516 06e6 910B      		sbc r25,r17
 1517 06e8 6AE0      		ldi r22,lo8(10)
 1518 06ea 70E0      		ldi r23,hi8(10)
 1519 06ec 0E94 0000 		call __udivmodhi4
 1520 06f0 5B01      		movw r10,r22
 1521               	.LM144:
 1522 06f2 8AEF      		ldi r24,lo8(-6)
 1523 06f4 D80E      		add r13,r24
 1524               	.LM145:
 1525 06f6 F394      		inc r15
 1526               	.LM146:
 1527 06f8 6115      		cp r22,__zero_reg__
 1528 06fa 7105      		cpc r23,__zero_reg__
 1529 06fc 01F4      		brne .L111
 1530               	.LVL198:
 1531 06fe 00C0      		rjmp .L112
 1532               	.LVL199:
 1533               	.L110:
 1534               	.LM147:
 1535 0700 0435      		cpi r16,lo8(84)
 1536 0702 01F0      		breq .+2
 1537 0704 00C0      		rjmp .L113
 1538               	.LBB86:
 1539               	.LM148:
 1540 0706 C501      		movw r24,r10
 1541 0708 6CE3      		ldi r22,lo8(60)
 1542 070a 70E0      		ldi r23,hi8(60)
 1543 070c 0E94 0000 		call __udivmodhi4
 1544 0710 8C01      		movw r16,r24
 1545               	.LVL200:
 1546               	.LM149:
 1547 0712 C501      		movw r24,r10
 1548 0714 801B      		sub r24,r16
 1549 0716 910B      		sbc r25,r17
 1550               	.LVL201:
 1551 0718 6CE3      		ldi r22,lo8(60)
 1552 071a 70E0      		ldi r23,hi8(60)
 1553 071c 0E94 0000 		call __udivmodhi4
 1554 0720 EB01      		movw r28,r22
 1555               	.LM150:
 1556 0722 C801      		movw r24,r16
 1557 0724 6AE0      		ldi r22,lo8(10)
 1558 0726 70E0      		ldi r23,hi8(10)
 1559 0728 0E94 0000 		call __udivmodhi4
 1560 072c F82E      		mov r15,r24
 1561               	.LM151:
 1562 072e 282F      		mov r18,r24
 1563               	.LVL202:
 1564 0730 205D      		subi r18,lo8(-(48))
 1565 0732 C401      		movw r24,r8
 1566 0734 6D2D      		mov r22,r13
 1567 0736 4C2D      		mov r20,r12
 1568 0738 0E94 0000 		call _ZN3LCD9writeCharEhhh
 1569 073c 3AEF      		ldi r19,lo8(-6)
 1570 073e D30E      		add r13,r19
 1571               	.LM152:
 1572 0740 C801      		movw r24,r16
 1573 0742 8F19      		sub r24,r15
 1574 0744 9109      		sbc r25,__zero_reg__
 1575 0746 6AE0      		ldi r22,lo8(10)
 1576 0748 70E0      		ldi r23,hi8(10)
 1577 074a 0E94 0000 		call __udivmodhi4
 1578 074e 262F      		mov r18,r22
 1579 0750 205D      		subi r18,lo8(-(48))
 1580 0752 C401      		movw r24,r8
 1581 0754 6D2D      		mov r22,r13
 1582 0756 4C2D      		mov r20,r12
 1583 0758 0E94 0000 		call _ZN3LCD9writeCharEhhh
 1584 075c 8AEF      		ldi r24,lo8(-6)
 1585 075e D80E      		add r13,r24
 1586               	.LM153:
 1587 0760 C401      		movw r24,r8
 1588 0762 6D2D      		mov r22,r13
 1589 0764 4C2D      		mov r20,r12
 1590 0766 2AE3      		ldi r18,lo8(58)
 1591 0768 0E94 0000 		call _ZN3LCD9writeCharEhhh
 1592 076c 3AEF      		ldi r19,lo8(-6)
 1593 076e D30E      		add r13,r19
 1594               	.LM154:
 1595 0770 CE01      		movw r24,r28
 1596 0772 6CE3      		ldi r22,lo8(60)
 1597 0774 70E0      		ldi r23,hi8(60)
 1598 0776 0E94 0000 		call __udivmodhi4
 1599 077a 7C01      		movw r14,r24
 1600               	.LVL203:
 1601               	.LM155:
 1602 077c 6AE0      		ldi r22,lo8(10)
 1603 077e 70E0      		ldi r23,hi8(10)
 1604 0780 0E94 0000 		call __udivmodhi4
 1605 0784 182F      		mov r17,r24
 1606               	.LM156:
 1607 0786 282F      		mov r18,r24
 1608 0788 205D      		subi r18,lo8(-(48))
 1609 078a C401      		movw r24,r8
 1610 078c 6D2D      		mov r22,r13
 1611 078e 4C2D      		mov r20,r12
 1612 0790 0E94 0000 		call _ZN3LCD9writeCharEhhh
 1613 0794 0D2D      		mov r16,r13
 1614               	.LVL204:
 1615 0796 0650      		subi r16,lo8(-(-6))
 1616               	.LVL205:
 1617               	.LM157:
 1618 0798 C701      		movw r24,r14
 1619               	.LVL206:
 1620 079a 811B      		sub r24,r17
 1621 079c 9109      		sbc r25,__zero_reg__
 1622 079e 6AE0      		ldi r22,lo8(10)
 1623 07a0 70E0      		ldi r23,hi8(10)
 1624 07a2 0E94 0000 		call __udivmodhi4
 1625 07a6 262F      		mov r18,r22
 1626               	.LVL207:
 1627 07a8 6623      		tst r22
 1628 07aa 01F0      		breq .L114
 1629               	.LVL208:
 1630 07ac 14E0      		ldi r17,lo8(4)
 1631               	.LVL209:
 1632 07ae 00C0      		rjmp .L115
 1633               	.LVL210:
 1634               	.L114:
 1635 07b0 13E0      		ldi r17,lo8(3)
 1636               	.LVL211:
 1637               	.L115:
 1638               	.LM158:
 1639 07b2 205D      		subi r18,lo8(-(48))
 1640               	.LVL212:
 1641 07b4 C401      		movw r24,r8
 1642 07b6 602F      		mov r22,r16
 1643 07b8 4C2D      		mov r20,r12
 1644 07ba 0E94 0000 		call _ZN3LCD9writeCharEhhh
 1645               	.LVL213:
 1646 07be 0650      		subi r16,lo8(-(-6))
 1647               	.LM159:
 1648 07c0 C401      		movw r24,r8
 1649 07c2 602F      		mov r22,r16
 1650 07c4 4C2D      		mov r20,r12
 1651 07c6 2AE3      		ldi r18,lo8(58)
 1652 07c8 0E94 0000 		call _ZN3LCD9writeCharEhhh
 1653 07cc 0650      		subi r16,lo8(-(-6))
 1654               	.LVL214:
 1655               	.LM160:
 1656 07ce CE01      		movw r24,r28
 1657 07d0 8E19      		sub r24,r14
 1658 07d2 9F09      		sbc r25,r15
 1659 07d4 6CE3      		ldi r22,lo8(60)
 1660 07d6 70E0      		ldi r23,hi8(60)
 1661 07d8 0E94 0000 		call __udivmodhi4
 1662 07dc CB01      		movw r24,r22
 1663 07de 6CE3      		ldi r22,lo8(60)
 1664 07e0 70E0      		ldi r23,hi8(60)
 1665 07e2 0E94 0000 		call __udivmodhi4
 1666 07e6 6AE0      		ldi r22,lo8(10)
 1667 07e8 70E0      		ldi r23,hi8(10)
 1668 07ea 0E94 0000 		call __udivmodhi4
 1669 07ee 282F      		mov r18,r24
 1670               	.LVL215:
 1671 07f0 8111      		cpse r24,__zero_reg__
 1672               	.LVL216:
 1673 07f2 16E0      		ldi r17,lo8(6)
 1674               	.L116:
 1675               	.LM161:
 1676 07f4 205D      		subi r18,lo8(-(48))
 1677               	.LVL217:
 1678 07f6 C401      		movw r24,r8
 1679 07f8 602F      		mov r22,r16
 1680 07fa 4C2D      		mov r20,r12
 1681 07fc 0E94 0000 		call _ZN3LCD9writeCharEhhh
 1682               	.LVL218:
 1683 0800 602F      		mov r22,r16
 1684 0802 6650      		subi r22,lo8(-(-6))
 1685               	.LVL219:
 1686               	.LM162:
 1687 0804 27E0      		ldi r18,lo8(7)
 1688 0806 30E0      		ldi r19,hi8(7)
 1689 0808 211B      		sub r18,r17
 1690 080a 3109      		sbc r19,__zero_reg__
 1691 080c C901      		movw r24,r18
 1692 080e 880F      		lsl r24
 1693 0810 991F      		rol r25
 1694 0812 820F      		add r24,r18
 1695 0814 931F      		adc r25,r19
 1696 0816 880F      		lsl r24
 1697 0818 991F      		rol r25
 1698 081a 262F      		mov r18,r22
 1699 081c 280F      		add r18,r24
 1700 081e C401      		movw r24,r8
 1701 0820 4C2D      		mov r20,r12
 1702 0822 37E0      		ldi r19,lo8(7)
 1703 0824 C30E      		add r12,r19
 1704 0826 0C2D      		mov r16,r12
 1705 0828 0E94 0000 		call _ZN3LCD8eraseBoxEhhhh
 1706               	.LVL220:
 1707               	.LM163:
 1708 082c 97E0      		ldi r25,lo8(7)
 1709 082e F92E      		mov r15,r25
 1710               	.LVL221:
 1711 0830 F11A      		sub r15,r17
 1712 0832 00C0      		rjmp .L112
 1713               	.LVL222:
 1714               	.L113:
 1715               	.LBE86:
 1716               	.LM164:
 1717 0834 0634      		cpi r16,lo8(70)
 1718 0836 01F0      		breq .L117
 1719 0838 FF24      		clr r15
 1720               	.LVL223:
 1721 083a 00C0      		rjmp .L112
 1722               	.LVL224:
 1723               	.L117:
 1724               	.LBB87:
 1725               	.LM165:
 1726 083c C501      		movw r24,r10
 1727 083e 68E5      		ldi r22,lo8(600)
 1728 0840 72E0      		ldi r23,hi8(600)
 1729 0842 0E94 0000 		call __udivmodhi4
 1730 0846 EC01      		movw r28,r24
 1731               	.LM166:
 1732 0848 6AE0      		ldi r22,lo8(10)
 1733 084a 70E0      		ldi r23,hi8(10)
 1734 084c 0E94 0000 		call __udivmodhi4
 1735 0850 182F      		mov r17,r24
 1736               	.LM167:
 1737 0852 282F      		mov r18,r24
 1738               	.LVL225:
 1739 0854 205D      		subi r18,lo8(-(48))
 1740 0856 C401      		movw r24,r8
 1741 0858 6D2D      		mov r22,r13
 1742 085a 4C2D      		mov r20,r12
 1743 085c 0E94 0000 		call _ZN3LCD9writeCharEhhh
 1744 0860 8AEF      		ldi r24,lo8(-6)
 1745 0862 D80E      		add r13,r24
 1746               	.LM168:
 1747 0864 C401      		movw r24,r8
 1748 0866 6D2D      		mov r22,r13
 1749 0868 4C2D      		mov r20,r12
 1750 086a 2EE2      		ldi r18,lo8(46)
 1751 086c 0E94 0000 		call _ZN3LCD9writeCharEhhh
 1752 0870 3AEF      		ldi r19,lo8(-6)
 1753 0872 D30E      		add r13,r19
 1754               	.LM169:
 1755 0874 CE01      		movw r24,r28
 1756               	.LVL226:
 1757 0876 811B      		sub r24,r17
 1758 0878 9109      		sbc r25,__zero_reg__
 1759 087a 6AE0      		ldi r22,lo8(10)
 1760 087c 70E0      		ldi r23,hi8(10)
 1761 087e 0E94 0000 		call __udivmodhi4
 1762 0882 8B01      		movw r16,r22
 1763               	.LVL227:
 1764               	.LM170:
 1765 0884 CB01      		movw r24,r22
 1766 0886 6AE0      		ldi r22,lo8(10)
 1767 0888 70E0      		ldi r23,hi8(10)
 1768 088a 0E94 0000 		call __udivmodhi4
 1769 088e F82E      		mov r15,r24
 1770               	.LM171:
 1771 0890 282F      		mov r18,r24
 1772 0892 205D      		subi r18,lo8(-(48))
 1773 0894 C401      		movw r24,r8
 1774 0896 6D2D      		mov r22,r13
 1775 0898 4C2D      		mov r20,r12
 1776 089a 0E94 0000 		call _ZN3LCD9writeCharEhhh
 1777 089e 8AEF      		ldi r24,lo8(-6)
 1778 08a0 E82E      		mov r14,r24
 1779               	.LVL228:
 1780 08a2 ED0C      		add r14,r13
 1781               	.LM172:
 1782 08a4 C801      		movw r24,r16
 1783 08a6 8F19      		sub r24,r15
 1784 08a8 9109      		sbc r25,__zero_reg__
 1785 08aa 6AE0      		ldi r22,lo8(10)
 1786 08ac 70E0      		ldi r23,hi8(10)
 1787 08ae 0E94 0000 		call __udivmodhi4
 1788 08b2 262F      		mov r18,r22
 1789               	.LVL229:
 1790 08b4 6623      		tst r22
 1791 08b6 01F0      		breq .L118
 1792               	.LVL230:
 1793 08b8 B3E0      		ldi r27,lo8(3)
 1794 08ba DB2E      		mov r13,r27
 1795               	.LVL231:
 1796 08bc 00C0      		rjmp .L119
 1797               	.LVL232:
 1798               	.L118:
 1799 08be A2E0      		ldi r26,lo8(2)
 1800 08c0 DA2E      		mov r13,r26
 1801               	.LVL233:
 1802               	.L119:
 1803               	.LM173:
 1804 08c2 205D      		subi r18,lo8(-(48))
 1805               	.LVL234:
 1806 08c4 C401      		movw r24,r8
 1807 08c6 6E2D      		mov r22,r14
 1808 08c8 4C2D      		mov r20,r12
 1809 08ca 0E94 0000 		call _ZN3LCD9writeCharEhhh
 1810               	.LVL235:
 1811 08ce 8AEF      		ldi r24,lo8(-6)
 1812 08d0 E80E      		add r14,r24
 1813               	.LM174:
 1814 08d2 C401      		movw r24,r8
 1815 08d4 6E2D      		mov r22,r14
 1816 08d6 4C2D      		mov r20,r12
 1817 08d8 2AE3      		ldi r18,lo8(58)
 1818 08da 0E94 0000 		call _ZN3LCD9writeCharEhhh
 1819 08de 3AEF      		ldi r19,lo8(-6)
 1820 08e0 E30E      		add r14,r19
 1821               	.LVL236:
 1822               	.LM175:
 1823 08e2 C501      		movw r24,r10
 1824 08e4 8C1B      		sub r24,r28
 1825 08e6 9D0B      		sbc r25,r29
 1826 08e8 68E5      		ldi r22,lo8(600)
 1827 08ea 72E0      		ldi r23,hi8(600)
 1828 08ec 0E94 0000 		call __udivmodhi4
 1829 08f0 CB01      		movw r24,r22
 1830 08f2 68E5      		ldi r22,lo8(600)
 1831 08f4 72E0      		ldi r23,hi8(600)
 1832 08f6 0E94 0000 		call __udivmodhi4
 1833 08fa 8C01      		movw r16,r24
 1834               	.LVL237:
 1835               	.LM176:
 1836 08fc 6AE0      		ldi r22,lo8(10)
 1837 08fe 70E0      		ldi r23,hi8(10)
 1838 0900 0E94 0000 		call __udivmodhi4
 1839 0904 F82E      		mov r15,r24
 1840               	.LVL238:
 1841 0906 8823      		tst r24
 1842 0908 01F0      		breq .L120
 1843               	.LVL239:
 1844 090a F5E0      		ldi r31,lo8(5)
 1845 090c DF2E      		mov r13,r31
 1846               	.L120:
 1847               	.LM177:
 1848 090e 2F2D      		mov r18,r15
 1849 0910 205D      		subi r18,lo8(-(48))
 1850 0912 C401      		movw r24,r8
 1851               	.LVL240:
 1852 0914 6E2D      		mov r22,r14
 1853 0916 4C2D      		mov r20,r12
 1854 0918 0E94 0000 		call _ZN3LCD9writeCharEhhh
 1855 091c 8AEF      		ldi r24,lo8(-6)
 1856 091e E80E      		add r14,r24
 1857               	.LVL241:
 1858               	.LM178:
 1859 0920 C801      		movw r24,r16
 1860 0922 8F19      		sub r24,r15
 1861 0924 9109      		sbc r25,__zero_reg__
 1862 0926 6AE0      		ldi r22,lo8(10)
 1863 0928 70E0      		ldi r23,hi8(10)
 1864 092a 0E94 0000 		call __udivmodhi4
 1865 092e 262F      		mov r18,r22
 1866               	.LVL242:
 1867 0930 6623      		tst r22
 1868 0932 01F0      		breq .L121
 1869               	.LVL243:
 1870 0934 E6E0      		ldi r30,lo8(6)
 1871 0936 DE2E      		mov r13,r30
 1872               	.L121:
 1873               	.LM179:
 1874 0938 205D      		subi r18,lo8(-(48))
 1875               	.LVL244:
 1876 093a C401      		movw r24,r8
 1877 093c 6E2D      		mov r22,r14
 1878 093e 4C2D      		mov r20,r12
 1879 0940 0E94 0000 		call _ZN3LCD9writeCharEhhh
 1880               	.LVL245:
 1881 0944 6E2D      		mov r22,r14
 1882 0946 6650      		subi r22,lo8(-(-6))
 1883               	.LVL246:
 1884               	.LM180:
 1885 0948 27E0      		ldi r18,lo8(7)
 1886 094a 30E0      		ldi r19,hi8(7)
 1887 094c 2D19      		sub r18,r13
 1888 094e 3109      		sbc r19,__zero_reg__
 1889 0950 C901      		movw r24,r18
 1890 0952 880F      		lsl r24
 1891 0954 991F      		rol r25
 1892 0956 820F      		add r24,r18
 1893 0958 931F      		adc r25,r19
 1894 095a 880F      		lsl r24
 1895 095c 991F      		rol r25
 1896 095e 262F      		mov r18,r22
 1897 0960 280F      		add r18,r24
 1898 0962 C401      		movw r24,r8
 1899 0964 4C2D      		mov r20,r12
 1900 0966 37E0      		ldi r19,lo8(7)
 1901 0968 C30E      		add r12,r19
 1902 096a 0C2D      		mov r16,r12
 1903               	.LVL247:
 1904 096c 0E94 0000 		call _ZN3LCD8eraseBoxEhhhh
 1905               	.LVL248:
 1906               	.LM181:
 1907 0970 47E0      		ldi r20,lo8(7)
 1908 0972 F42E      		mov r15,r20
 1909               	.LVL249:
 1910 0974 FD18      		sub r15,r13
 1911               	.LVL250:
 1912               	.L112:
 1913               	.LBE87:
 1914               	.LBE85:
 1915               	.LM182:
 1916 0976 8F2D      		mov r24,r15
 1917               	/* epilogue start */
 1918 0978 DF91      		pop r29
 1919 097a CF91      		pop r28
 1920               	.LVL251:
 1921 097c 1F91      		pop r17
 1922               	.LVL252:
 1923 097e 0F91      		pop r16
 1924               	.LVL253:
 1925 0980 FF90      		pop r15
 1926               	.LVL254:
 1927 0982 EF90      		pop r14
 1928               	.LVL255:
 1929 0984 DF90      		pop r13
 1930               	.LVL256:
 1931 0986 CF90      		pop r12
 1932               	.LVL257:
 1933 0988 BF90      		pop r11
 1934 098a AF90      		pop r10
 1935               	.LVL258:
 1936 098c 9F90      		pop r9
 1937 098e 8F90      		pop r8
 1938               	.LVL259:
 1939 0990 0895      		ret
 1940               	.LFE15:
 1942               	.global	_ZN3LCD7drawBMPEhhPh
 1944               	_ZN3LCD7drawBMPEhhPh:
 1945               	.LFB28:
 1946               	.LM183:
 1947               	.LVL260:
 1948 0992 2F92      		push r2
 1949 0994 3F92      		push r3
 1950 0996 4F92      		push r4
 1951 0998 5F92      		push r5
 1952 099a 6F92      		push r6
 1953 099c 7F92      		push r7
 1954 099e 8F92      		push r8
 1955 09a0 9F92      		push r9
 1956 09a2 AF92      		push r10
 1957 09a4 BF92      		push r11
 1958 09a6 CF92      		push r12
 1959 09a8 DF92      		push r13
 1960 09aa EF92      		push r14
 1961 09ac FF92      		push r15
 1962 09ae 0F93      		push r16
 1963 09b0 1F93      		push r17
 1964 09b2 DF93      		push r29
 1965 09b4 CF93      		push r28
 1966 09b6 00D0      		rcall .
 1967 09b8 00D0      		rcall .
 1968 09ba 00D0      		rcall .
 1969 09bc CDB7      		in r28,__SP_L__
 1970 09be DEB7      		in r29,__SP_H__
 1971               	/* prologue: function */
 1972               	/* frame size = 6 */
 1973 09c0 5C01      		movw r10,r24
 1974 09c2 6C83      		std Y+4,r22
 1975 09c4 642E      		mov r6,r20
 1976 09c6 F901      		movw r30,r18
 1977               	.LBB88:
 1978               	.LBB89:
 1979               	.LM184:
 1980 09c8 C901      		movw r24,r18
 1981               	.LVL261:
 1982 09ca 0196      		adiw r24,1
 1983               	.LVL262:
 1984               	/* #APP */
 1985               	 ;  397 "src/Nokia_BW_LCD.cpp" 1
 1986 09cc 7490      		lpm r7, Z
 1987               		
 1988               	 ;  0 "" 2
 1989               	.LVL263:
 1990               	/* #NOAPP */
 1991               	.LBE89:
 1992               	.LBB90:
 1993               	.LM185:
 1994 09ce 8C01      		movw r16,r24
 1995 09d0 0F5F      		subi r16,lo8(-(1))
 1996 09d2 1F4F      		sbci r17,hi8(-(1))
 1997               	.LVL264:
 1998 09d4 FC01      		movw r30,r24
 1999               	/* #APP */
 2000               	 ;  398 "src/Nokia_BW_LCD.cpp" 1
 2001 09d6 8491      		lpm r24, Z
 2002               		
 2003               	 ;  0 "" 2
 2004               	.LVL265:
 2005               	/* #NOAPP */
 2006               	.LBE90:
 2007               	.LM186:
 2008 09d8 6623      		tst r22
 2009 09da 01F4      		brne .L125
 2010               	.LVL266:
 2011 09dc 4423      		tst r20
 2012 09de 01F0      		breq .L126
 2013               	.L125:
 2014               	.LM187:
 2015 09e0 90E0      		ldi r25,lo8(0)
 2016 09e2 9C01      		movw r18,r24
 2017               	.LVL267:
 2018 09e4 63E0      		ldi r22,3
 2019 09e6 3595      	1:	asr r19
 2020 09e8 2795      		ror r18
 2021 09ea 6A95      		dec r22
 2022 09ec 01F4      		brne 1b
 2023               	.LVL268:
 2024 09ee 3B83      		std Y+3,r19
 2025 09f0 2A83      		std Y+2,r18
 2026 09f2 CC24      		clr r12
 2027               	.LVL269:
 2028               	.LM188:
 2029 09f4 1C01      		movw r2,r24
 2030 09f6 260C      		add r2,r6
 2031 09f8 311C      		adc r3,__zero_reg__
 2032               	.LM189:
 2033 09fa 472C      		mov r4,r7
 2034 09fc 5524      		clr r5
 2035               	.LVL270:
 2036 09fe 00C0      		rjmp .L127
 2037               	.LVL271:
 2038               	.L126:
 2039               	.LM190:
 2040 0a00 34E5      		ldi r19,lo8(84)
 2041 0a02 7316      		cp r7,r19
 2042 0a04 01F4      		brne .L125
 2043 0a06 8033      		cpi r24,lo8(48)
 2044 0a08 01F4      		brne .L125
 2045 0a0a 20E0      		ldi r18,lo8(0)
 2046 0a0c 30E0      		ldi r19,hi8(0)
 2047 0a0e 00C0      		rjmp .L128
 2048               	.LVL272:
 2049               	.L129:
 2050               	.LBB91:
 2051               	.LM191:
 2052 0a10 F801      		movw r30,r16
 2053               	.LVL273:
 2054 0a12 E80F      		add r30,r24
 2055 0a14 F91F      		adc r31,r25
 2056               	/* #APP */
 2057               	 ;  406 "src/Nokia_BW_LCD.cpp" 1
 2058 0a16 E491      		lpm r30, Z
 2059               		
 2060               	 ;  0 "" 2
 2061               	.LVL274:
 2062               	/* #NOAPP */
 2063 0a18 EC93      		st X,r30
 2064 0a1a 0196      		adiw r24,1
 2065 0a1c 1696      		adiw r26,6
 2066               	.LBE91:
 2067               	.LM192:
 2068 0a1e 8435      		cpi r24,84
 2069 0a20 9105      		cpc r25,__zero_reg__
 2070 0a22 01F4      		brne .L129
 2071 0a24 0C5A      		subi r16,lo8(-(84))
 2072 0a26 1F4F      		sbci r17,hi8(-(84))
 2073 0a28 2F5F      		subi r18,lo8(-(1))
 2074 0a2a 3F4F      		sbci r19,hi8(-(1))
 2075               	.LM193:
 2076 0a2c 2630      		cpi r18,6
 2077 0a2e 3105      		cpc r19,__zero_reg__
 2078 0a30 01F4      		brne .+2
 2079 0a32 00C0      		rjmp .L136
 2080               	.LVL275:
 2081               	.L128:
 2082 0a34 D501      		movw r26,r10
 2083 0a36 A20F      		add r26,r18
 2084 0a38 B31F      		adc r27,r19
 2085 0a3a 80E0      		ldi r24,lo8(0)
 2086 0a3c 90E0      		ldi r25,hi8(0)
 2087               	.LVL276:
 2088 0a3e 00C0      		rjmp .L129
 2089               	.LVL277:
 2090               	.L134:
 2091               	.LBB92:
 2092               	.LM194:
 2093 0a40 F701      		movw r30,r14
 2094               	/* #APP */
 2095               	 ;  416 "src/Nokia_BW_LCD.cpp" 1
 2096 0a42 8491      		lpm r24, Z
 2097               		
 2098               	 ;  0 "" 2
 2099               	.LVL278:
 2100               	/* #NOAPP */
 2101 0a44 1E82      		std Y+6,__zero_reg__
 2102 0a46 1D82      		std Y+5,__zero_reg__
 2103               	.LBE92:
 2104               	.LM195:
 2105 0a48 882E      		mov r8,r24
 2106 0a4a 9924      		clr r9
 2107               	.LVL279:
 2108               	.L133:
 2109               	.LBB93:
 2110               	.LM196:
 2111 0a4c 4981      		ldd r20,Y+1
 2112 0a4e FD81      		ldd r31,Y+5
 2113 0a50 4F0F      		add r20,r31
 2114               	.LBE93:
 2115               	.LM197:
 2116 0a52 842F      		mov r24,r20
 2117 0a54 90E0      		ldi r25,lo8(0)
 2118 0a56 2816      		cp r2,r24
 2119 0a58 3906      		cpc r3,r25
 2120 0a5a 04F0      		brlt .L131
 2121               	.LVL280:
 2122               	.LM198:
 2123 0a5c C401      		movw r24,r8
 2124               	.LVL281:
 2125 0a5e 00C0      		rjmp 2f
 2126 0a60 9595      	1:	asr r25
 2127 0a62 8795      		ror r24
 2128 0a64 FA95      	2:	dec r31
 2129 0a66 02F4      		brpl 1b
 2130 0a68 80FF      		sbrs r24,0
 2131 0a6a 00C0      		rjmp .L132
 2132 0a6c C501      		movw r24,r10
 2133 0a6e 6D2D      		mov r22,r13
 2134 0a70 0E94 0000 		call _ZN3LCD8setPixelEhh
 2135               	.LVL282:
 2136 0a74 00C0      		rjmp .L131
 2137               	.LVL283:
 2138               	.L132:
 2139 0a76 C501      		movw r24,r10
 2140 0a78 6D2D      		mov r22,r13
 2141 0a7a 0E94 0000 		call _ZN3LCD10clearPixelEhh
 2142               	.LVL284:
 2143               	.L131:
 2144 0a7e 2D81      		ldd r18,Y+5
 2145 0a80 3E81      		ldd r19,Y+6
 2146 0a82 2F5F      		subi r18,lo8(-(1))
 2147 0a84 3F4F      		sbci r19,hi8(-(1))
 2148 0a86 3E83      		std Y+6,r19
 2149 0a88 2D83      		std Y+5,r18
 2150               	.LM199:
 2151 0a8a 2830      		cpi r18,8
 2152 0a8c 3105      		cpc r19,__zero_reg__
 2153 0a8e 01F4      		brne .L133
 2154               	.LBB94:
 2155               	.LM200:
 2156 0a90 0894      		sec
 2157 0a92 E11C      		adc r14,__zero_reg__
 2158 0a94 F11C      		adc r15,__zero_reg__
 2159 0a96 D394      		inc r13
 2160               	.LVL285:
 2161               	.L135:
 2162               	.LBE94:
 2163               	.LM201:
 2164 0a98 8E2D      		mov r24,r14
 2165               	.LVL286:
 2166 0a9a 801B      		sub r24,r16
 2167 0a9c 8715      		cp r24,r7
 2168 0a9e 00F0      		brlo .L134
 2169               	.LM202:
 2170 0aa0 040D      		add r16,r4
 2171 0aa2 151D      		adc r17,r5
 2172               	.LM203:
 2173 0aa4 C394      		inc r12
 2174               	.LVL287:
 2175               	.L127:
 2176 0aa6 8C2D      		mov r24,r12
 2177 0aa8 90E0      		ldi r25,lo8(0)
 2178               	.LVL288:
 2179 0aaa EA81      		ldd r30,Y+2
 2180 0aac FB81      		ldd r31,Y+3
 2181 0aae 8E17      		cp r24,r30
 2182 0ab0 9F07      		cpc r25,r31
 2183 0ab2 04F4      		brge .L136
 2184               	.LM204:
 2185 0ab4 53E0      		ldi r21,3
 2186 0ab6 880F      	1:	lsl r24
 2187 0ab8 991F      		rol r25
 2188 0aba 5A95      		dec r21
 2189 0abc 01F4      		brne 1b
 2190 0abe F62D      		mov r31,r6
 2191 0ac0 F80F      		add r31,r24
 2192 0ac2 F983      		std Y+1,r31
 2193 0ac4 7801      		movw r14,r16
 2194 0ac6 DC80      		ldd r13,Y+4
 2195 0ac8 00C0      		rjmp .L135
 2196               	.LVL289:
 2197               	.L136:
 2198               	/* epilogue start */
 2199               	.LBE88:
 2200               	.LM205:
 2201 0aca 2696      		adiw r28,6
 2202 0acc 0FB6      		in __tmp_reg__,__SREG__
 2203 0ace F894      		cli
 2204 0ad0 DEBF      		out __SP_H__,r29
 2205 0ad2 0FBE      		out __SREG__,__tmp_reg__
 2206 0ad4 CDBF      		out __SP_L__,r28
 2207 0ad6 CF91      		pop r28
 2208 0ad8 DF91      		pop r29
 2209 0ada 1F91      		pop r17
 2210 0adc 0F91      		pop r16
 2211               	.LVL290:
 2212 0ade FF90      		pop r15
 2213 0ae0 EF90      		pop r14
 2214 0ae2 DF90      		pop r13
 2215 0ae4 CF90      		pop r12
 2216               	.LVL291:
 2217 0ae6 BF90      		pop r11
 2218 0ae8 AF90      		pop r10
 2219               	.LVL292:
 2220 0aea 9F90      		pop r9
 2221               	.LVL293:
 2222 0aec 8F90      		pop r8
 2223               	.LVL294:
 2224 0aee 7F90      		pop r7
 2225               	.LVL295:
 2226 0af0 6F90      		pop r6
 2227               	.LVL296:
 2228 0af2 5F90      		pop r5
 2229               	.LVL297:
 2230 0af4 4F90      		pop r4
 2231               	.LVL298:
 2232 0af6 3F90      		pop r3
 2233 0af8 2F90      		pop r2
 2234 0afa 0895      		ret
 2235               	.LFE28:
 2237               	.global	_ZN3LCD10drawCircleEhhh
 2239               	_ZN3LCD10drawCircleEhhh:
 2240               	.LFB29:
 2241               	.LM206:
 2242               	.LVL299:
 2243 0afc 8F92      		push r8
 2244 0afe 9F92      		push r9
 2245 0b00 AF92      		push r10
 2246 0b02 BF92      		push r11
 2247 0b04 CF92      		push r12
 2248 0b06 DF92      		push r13
 2249 0b08 EF92      		push r14
 2250 0b0a FF92      		push r15
 2251 0b0c 0F93      		push r16
 2252 0b0e 1F93      		push r17
 2253 0b10 CF93      		push r28
 2254 0b12 DF93      		push r29
 2255               	/* prologue: function */
 2256               	/* frame size = 0 */
 2257 0b14 EC01      		movw r28,r24
 2258 0b16 F62E      		mov r15,r22
 2259 0b18 142F      		mov r17,r20
 2260 0b1a E22E      		mov r14,r18
 2261               	.LBB95:
 2262               	.LM207:
 2263 0b1c 621B      		sub r22,r18
 2264               	.LVL300:
 2265 0b1e 0E94 0000 		call _ZN3LCD8setPixelEhh
 2266               	.LVL301:
 2267               	.LM208:
 2268 0b22 412F      		mov r20,r17
 2269 0b24 4E19      		sub r20,r14
 2270 0b26 CE01      		movw r24,r28
 2271 0b28 6F2D      		mov r22,r15
 2272 0b2a 0E94 0000 		call _ZN3LCD8setPixelEhh
 2273               	.LM209:
 2274 0b2e 6E2D      		mov r22,r14
 2275 0b30 6F0D      		add r22,r15
 2276 0b32 CE01      		movw r24,r28
 2277 0b34 412F      		mov r20,r17
 2278 0b36 0E94 0000 		call _ZN3LCD8setPixelEhh
 2279               	.LM210:
 2280 0b3a 4E2D      		mov r20,r14
 2281 0b3c 410F      		add r20,r17
 2282 0b3e CE01      		movw r24,r28
 2283 0b40 6F2D      		mov r22,r15
 2284 0b42 0E94 0000 		call _ZN3LCD8setPixelEhh
 2285 0b46 1150      		subi r17,lo8(-(-1))
 2286 0b48 812E      		mov r8,r17
 2287 0b4a 8E0C      		add r8,r14
 2288 0b4c 1E5F      		subi r17,lo8(-(2))
 2289 0b4e 912E      		mov r9,r17
 2290 0b50 9E18      		sub r9,r14
 2291 0b52 1150      		subi r17,lo8(-(-1))
 2292 0b54 FA94      		dec r15
 2293 0b56 AF2C      		mov r10,r15
 2294 0b58 AE0C      		add r10,r14
 2295 0b5a 82E0      		ldi r24,lo8(2)
 2296 0b5c F80E      		add r15,r24
 2297 0b5e BF2C      		mov r11,r15
 2298 0b60 BE18      		sub r11,r14
 2299 0b62 FA94      		dec r15
 2300 0b64 00E0      		ldi r16,lo8(0)
 2301               	.LVL302:
 2302               	.L140:
 2303               	.LM211:
 2304 0b66 0F5F      		subi r16,lo8(-(1))
 2305 0b68 C02E      		mov r12,r16
 2306 0b6a CF0C      		add r12,r15
 2307               	.LM212:
 2308 0b6c CE01      		movw r24,r28
 2309 0b6e 6C2D      		mov r22,r12
 2310 0b70 482D      		mov r20,r8
 2311 0b72 0E94 0000 		call _ZN3LCD8setPixelEhh
 2312 0b76 DF2C      		mov r13,r15
 2313 0b78 D01A      		sub r13,r16
 2314               	.LM213:
 2315 0b7a CE01      		movw r24,r28
 2316 0b7c 6D2D      		mov r22,r13
 2317 0b7e 492D      		mov r20,r9
 2318 0b80 0E94 0000 		call _ZN3LCD8setPixelEhh
 2319               	.LM214:
 2320 0b84 CE01      		movw r24,r28
 2321 0b86 6C2D      		mov r22,r12
 2322 0b88 492D      		mov r20,r9
 2323 0b8a 0E94 0000 		call _ZN3LCD8setPixelEhh
 2324               	.LM215:
 2325 0b8e CE01      		movw r24,r28
 2326 0b90 6D2D      		mov r22,r13
 2327 0b92 482D      		mov r20,r8
 2328 0b94 0E94 0000 		call _ZN3LCD8setPixelEhh
 2329 0b98 C02E      		mov r12,r16
 2330 0b9a C10E      		add r12,r17
 2331               	.LM216:
 2332 0b9c CE01      		movw r24,r28
 2333 0b9e 6A2D      		mov r22,r10
 2334 0ba0 4C2D      		mov r20,r12
 2335 0ba2 0E94 0000 		call _ZN3LCD8setPixelEhh
 2336 0ba6 D12E      		mov r13,r17
 2337 0ba8 D01A      		sub r13,r16
 2338               	.LM217:
 2339 0baa CE01      		movw r24,r28
 2340 0bac 6B2D      		mov r22,r11
 2341 0bae 4D2D      		mov r20,r13
 2342 0bb0 0E94 0000 		call _ZN3LCD8setPixelEhh
 2343               	.LM218:
 2344 0bb4 CE01      		movw r24,r28
 2345 0bb6 6A2D      		mov r22,r10
 2346 0bb8 4D2D      		mov r20,r13
 2347 0bba 0E94 0000 		call _ZN3LCD8setPixelEhh
 2348               	.LM219:
 2349 0bbe CE01      		movw r24,r28
 2350 0bc0 6B2D      		mov r22,r11
 2351 0bc2 4C2D      		mov r20,r12
 2352 0bc4 0E94 0000 		call _ZN3LCD8setPixelEhh
 2353 0bc8 8A94      		dec r8
 2354 0bca 9394      		inc r9
 2355 0bcc AA94      		dec r10
 2356 0bce B394      		inc r11
 2357               	.LM220:
 2358 0bd0 8E2D      		mov r24,r14
 2359 0bd2 801B      		sub r24,r16
 2360 0bd4 8017      		cp r24,r16
 2361 0bd6 00F4      		brsh .L140
 2362               	/* epilogue start */
 2363               	.LBE95:
 2364               	.LM221:
 2365 0bd8 DF91      		pop r29
 2366 0bda CF91      		pop r28
 2367               	.LVL303:
 2368 0bdc 1F91      		pop r17
 2369               	.LVL304:
 2370 0bde 0F91      		pop r16
 2371               	.LVL305:
 2372 0be0 FF90      		pop r15
 2373               	.LVL306:
 2374 0be2 EF90      		pop r14
 2375               	.LVL307:
 2376 0be4 DF90      		pop r13
 2377 0be6 CF90      		pop r12
 2378 0be8 BF90      		pop r11
 2379 0bea AF90      		pop r10
 2380 0bec 9F90      		pop r9
 2381 0bee 8F90      		pop r8
 2382 0bf0 0895      		ret
 2383               	.LFE29:
 2385               	.global	_ZN3LCD8swapBitsEh
 2387               	_ZN3LCD8swapBitsEh:
 2388               	.LFB30:
 2389               	.LM222:
 2390               	.LVL308:
 2391 0bf2 AF92      		push r10
 2392 0bf4 BF92      		push r11
 2393 0bf6 CF92      		push r12
 2394 0bf8 DF92      		push r13
 2395 0bfa EF92      		push r14
 2396 0bfc FF92      		push r15
 2397 0bfe 0F93      		push r16
 2398 0c00 1F93      		push r17
 2399               	/* prologue: function */
 2400               	/* frame size = 0 */
 2401 0c02 A62E      		mov r10,r22
 2402               	.LBB96:
 2403               	.LM223:
 2404 0c04 BB24      		clr r11
 2405               	.LVL309:
 2406 0c06 CC24      		clr r12
 2407 0c08 DD24      		clr r13
 2408               	.LVL310:
 2409               	.LM224:
 2410 0c0a C601      		movw r24,r12
 2411 0c0c B501      		movw r22,r10
 2412               	.LVL311:
 2413 0c0e 20E2      		ldi r18,lo8(32800)
 2414 0c10 30E8      		ldi r19,hi8(32800)
 2415 0c12 40E0      		ldi r20,hlo8(32800)
 2416 0c14 50E0      		ldi r21,hhi8(32800)
 2417 0c16 0E94 0000 		call __mulsi3
 2418 0c1a 7B01      		movw r14,r22
 2419 0c1c 8C01      		movw r16,r24
 2420 0c1e 80E4      		ldi r24,lo8(558144)
 2421 0c20 94E8      		ldi r25,hi8(558144)
 2422 0c22 A8E0      		ldi r26,hlo8(558144)
 2423 0c24 B0E0      		ldi r27,hhi8(558144)
 2424               	.LVL312:
 2425 0c26 E822      		and r14,r24
 2426 0c28 F922      		and r15,r25
 2427 0c2a 0A23      		and r16,r26
 2428 0c2c 1B23      		and r17,r27
 2429 0c2e C601      		movw r24,r12
 2430 0c30 B501      		movw r22,r10
 2431 0c32 22E0      		ldi r18,lo8(2050)
 2432 0c34 38E0      		ldi r19,hi8(2050)
 2433 0c36 40E0      		ldi r20,hlo8(2050)
 2434 0c38 50E0      		ldi r21,hhi8(2050)
 2435 0c3a 0E94 0000 		call __mulsi3
 2436 0c3e 6071      		andi r22,lo8(139536)
 2437 0c40 7172      		andi r23,hi8(139536)
 2438 0c42 8270      		andi r24,hlo8(139536)
 2439 0c44 9070      		andi r25,hhi8(139536)
 2440 0c46 E62A      		or r14,r22
 2441 0c48 F72A      		or r15,r23
 2442 0c4a 082B      		or r16,r24
 2443 0c4c 192B      		or r17,r25
 2444 0c4e C801      		movw r24,r16
 2445 0c50 B701      		movw r22,r14
 2446 0c52 21E0      		ldi r18,lo8(65793)
 2447 0c54 31E0      		ldi r19,hi8(65793)
 2448 0c56 41E0      		ldi r20,hlo8(65793)
 2449 0c58 50E0      		ldi r21,hhi8(65793)
 2450 0c5a 0E94 0000 		call __mulsi3
 2451 0c5e DC01      		movw r26,r24
 2452 0c60 CB01      		movw r24,r22
 2453 0c62 CD01      		movw r24,r26
 2454 0c64 AA27      		clr r26
 2455 0c66 BB27      		clr r27
 2456               	/* epilogue start */
 2457               	.LBE96:
 2458               	.LM225:
 2459 0c68 1F91      		pop r17
 2460 0c6a 0F91      		pop r16
 2461 0c6c FF90      		pop r15
 2462 0c6e EF90      		pop r14
 2463 0c70 DF90      		pop r13
 2464 0c72 CF90      		pop r12
 2465               	.LVL313:
 2466 0c74 BF90      		pop r11
 2467               	.LVL314:
 2468 0c76 AF90      		pop r10
 2469               	.LVL315:
 2470 0c78 0895      		ret
 2471               	.LFE30:
 2473               	.global	_ZN3LCD3clsEv
 2475               	_ZN3LCD3clsEv:
 2476               	.LFB31:
 2477               	.LM226:
 2478               	.LVL316:
 2479               	/* prologue: function */
 2480               	/* frame size = 0 */
 2481               	.LM227:
 2482 0c7a 20E0      		ldi r18,lo8(0)
 2483 0c7c 30E0      		ldi r19,hi8(0)
 2484 0c7e 00C0      		rjmp .L146
 2485               	.LVL317:
 2486               	.L147:
 2487               	.LBB97:
 2488               	.LM228:
 2489 0c80 1082      		st Z,__zero_reg__
 2490               	.LM229:
 2491 0c82 4F5F      		subi r20,lo8(-(1))
 2492 0c84 3696      		adiw r30,6
 2493 0c86 4435      		cpi r20,lo8(84)
 2494 0c88 01F4      		brne .L147
 2495 0c8a 2F5F      		subi r18,lo8(-(1))
 2496 0c8c 3F4F      		sbci r19,hi8(-(1))
 2497               	.LM230:
 2498 0c8e 2630      		cpi r18,6
 2499 0c90 3105      		cpc r19,__zero_reg__
 2500 0c92 01F0      		breq .L149
 2501               	.L146:
 2502 0c94 FC01      		movw r30,r24
 2503 0c96 E20F      		add r30,r18
 2504 0c98 F31F      		adc r31,r19
 2505 0c9a 40E0      		ldi r20,lo8(0)
 2506 0c9c 00C0      		rjmp .L147
 2507               	.L149:
 2508 0c9e 0895      		ret
 2509               	.LBE97:
 2510               	.LFE31:
 2512               	.global	_ZN3LCD9writeByteEhh
 2514               	_ZN3LCD9writeByteEhh:
 2515               	.LFB34:
 2516               	.LM231:
 2517               	.LVL318:
 2518               	/* prologue: function */
 2519               	/* frame size = 0 */
 2520               	.LM232:
 2521 0ca0 2898      		cbi 37-32,0
 2522               	.LM233:
 2523 0ca2 4423      		tst r20
 2524 0ca4 01F4      		brne .L152
 2525               	.LM234:
 2526 0ca6 1698      		cbi 34-32,6
 2527 0ca8 00C0      		rjmp .L153
 2528               	.L152:
 2529               	.LM235:
 2530 0caa 169A      		sbi 34-32,6
 2531               	.L153:
 2532               	.LM236:
 2533 0cac 6EBD      		out 78-32,r22
 2534               	.L154:
 2535               	.LM237:
 2536 0cae 0DB4      		in __tmp_reg__,77-32
 2537 0cb0 07FE      		sbrs __tmp_reg__,7
 2538 0cb2 00C0      		rjmp .L154
 2539               	.LM238:
 2540 0cb4 289A      		sbi 37-32,0
 2541               	/* epilogue start */
 2542               	.LM239:
 2543 0cb6 0895      		ret
 2544               	.LFE34:
 2546               	.global	_ZN3LCD5setXYEhh
 2548               	_ZN3LCD5setXYEhh:
 2549               	.LFB35:
 2550               	.LM240:
 2551               	.LVL319:
 2552 0cb8 EF92      		push r14
 2553 0cba FF92      		push r15
 2554 0cbc 1F93      		push r17
 2555               	/* prologue: function */
 2556               	/* frame size = 0 */
 2557 0cbe 7C01      		movw r14,r24
 2558 0cc0 162F      		mov r17,r22
 2559               	.LM241:
 2560 0cc2 4064      		ori r20,lo8(64)
 2561               	.LVL320:
 2562 0cc4 642F      		mov r22,r20
 2563               	.LVL321:
 2564 0cc6 40E0      		ldi r20,lo8(0)
 2565               	.LVL322:
 2566 0cc8 0E94 0000 		call _ZN3LCD9writeByteEhh
 2567               	.LVL323:
 2568               	.LM242:
 2569 0ccc 1068      		ori r17,lo8(-128)
 2570 0cce C701      		movw r24,r14
 2571 0cd0 612F      		mov r22,r17
 2572 0cd2 40E0      		ldi r20,lo8(0)
 2573 0cd4 0E94 0000 		call _ZN3LCD9writeByteEhh
 2574               	/* epilogue start */
 2575               	.LM243:
 2576 0cd8 1F91      		pop r17
 2577               	.LVL324:
 2578 0cda FF90      		pop r15
 2579 0cdc EF90      		pop r14
 2580               	.LVL325:
 2581 0cde 0895      		ret
 2582               	.LFE35:
 2584               	.global	_ZN3LCD6updateEv
 2586               	_ZN3LCD6updateEv:
 2587               	.LFB32:
 2588               	.LM244:
 2589               	.LVL326:
 2590 0ce0 CF92      		push r12
 2591 0ce2 DF92      		push r13
 2592 0ce4 EF92      		push r14
 2593 0ce6 FF92      		push r15
 2594 0ce8 0F93      		push r16
 2595 0cea 1F93      		push r17
 2596 0cec CF93      		push r28
 2597 0cee DF93      		push r29
 2598               	/* prologue: function */
 2599               	/* frame size = 0 */
 2600 0cf0 7C01      		movw r14,r24
 2601               	.LBB98:
 2602               	.LM245:
 2603 0cf2 60E0      		ldi r22,lo8(0)
 2604 0cf4 40E0      		ldi r20,lo8(0)
 2605 0cf6 0E94 0000 		call _ZN3LCD5setXYEhh
 2606               	.LVL327:
 2607 0cfa E8EF      		ldi r30,lo8(504)
 2608 0cfc CE2E      		mov r12,r30
 2609 0cfe E1E0      		ldi r30,hi8(504)
 2610 0d00 DE2E      		mov r13,r30
 2611 0d02 CE0C      		add r12,r14
 2612 0d04 DF1C      		adc r13,r15
 2613 0d06 00E0      		ldi r16,lo8(0)
 2614 0d08 10E0      		ldi r17,hi8(0)
 2615 0d0a 00C0      		rjmp .L160
 2616               	.L161:
 2617               	.LM246:
 2618 0d0c C701      		movw r24,r14
 2619 0d0e 6881      		ld r22,Y
 2620 0d10 41E0      		ldi r20,lo8(1)
 2621 0d12 0E94 0000 		call _ZN3LCD9writeByteEhh
 2622 0d16 2696      		adiw r28,6
 2623               	.LM247:
 2624 0d18 CC15      		cp r28,r12
 2625 0d1a DD05      		cpc r29,r13
 2626 0d1c 01F4      		brne .L161
 2627 0d1e 0F5F      		subi r16,lo8(-(1))
 2628 0d20 1F4F      		sbci r17,hi8(-(1))
 2629 0d22 6E01      		movw r12,r28
 2630 0d24 0894      		sec
 2631 0d26 C11C      		adc r12,__zero_reg__
 2632 0d28 D11C      		adc r13,__zero_reg__
 2633               	.LM248:
 2634 0d2a 0630      		cpi r16,6
 2635 0d2c 1105      		cpc r17,__zero_reg__
 2636 0d2e 01F0      		breq .L163
 2637               	.L160:
 2638 0d30 E701      		movw r28,r14
 2639 0d32 C00F      		add r28,r16
 2640 0d34 D11F      		adc r29,r17
 2641 0d36 00C0      		rjmp .L161
 2642               	.L163:
 2643               	/* epilogue start */
 2644               	.LBE98:
 2645               	.LM249:
 2646 0d38 DF91      		pop r29
 2647 0d3a CF91      		pop r28
 2648 0d3c 1F91      		pop r17
 2649 0d3e 0F91      		pop r16
 2650 0d40 FF90      		pop r15
 2651 0d42 EF90      		pop r14
 2652               	.LVL328:
 2653 0d44 DF90      		pop r13
 2654 0d46 CF90      		pop r12
 2655 0d48 0895      		ret
 2656               	.LFE32:
 2658               	.global	_ZN3LCD5clearEv
 2660               	_ZN3LCD5clearEv:
 2661               	.LFB36:
 2662               	.LM250:
 2663               	.LVL329:
 2664 0d4a 0F93      		push r16
 2665 0d4c 1F93      		push r17
 2666 0d4e CF93      		push r28
 2667 0d50 DF93      		push r29
 2668               	/* prologue: function */
 2669               	/* frame size = 0 */
 2670 0d52 8C01      		movw r16,r24
 2671               	.LBB99:
 2672               	.LM251:
 2673 0d54 6CE0      		ldi r22,lo8(12)
 2674 0d56 40E0      		ldi r20,lo8(0)
 2675 0d58 0E94 0000 		call _ZN3LCD9writeByteEhh
 2676               	.LVL330:
 2677               	.LM252:
 2678 0d5c C801      		movw r24,r16
 2679 0d5e 60E8      		ldi r22,lo8(-128)
 2680 0d60 40E0      		ldi r20,lo8(0)
 2681 0d62 0E94 0000 		call _ZN3LCD9writeByteEhh
 2682 0d66 C0E0      		ldi r28,lo8(0)
 2683 0d68 D0E0      		ldi r29,hi8(0)
 2684               	.LVL331:
 2685               	.L166:
 2686               	.LM253:
 2687 0d6a C801      		movw r24,r16
 2688 0d6c 60E0      		ldi r22,lo8(0)
 2689 0d6e 41E0      		ldi r20,lo8(1)
 2690 0d70 0E94 0000 		call _ZN3LCD9writeByteEhh
 2691               	.LM254:
 2692 0d74 2196      		adiw r28,1
 2693 0d76 81E0      		ldi r24,hi8(504)
 2694 0d78 C83F      		cpi r28,lo8(504)
 2695 0d7a D807      		cpc r29,r24
 2696 0d7c 01F4      		brne .L166
 2697               	/* epilogue start */
 2698               	.LBE99:
 2699               	.LM255:
 2700 0d7e DF91      		pop r29
 2701 0d80 CF91      		pop r28
 2702               	.LVL332:
 2703 0d82 1F91      		pop r17
 2704 0d84 0F91      		pop r16
 2705               	.LVL333:
 2706 0d86 0895      		ret
 2707               	.LFE36:
 2709               	.global	_ZN3LCD3offEv
 2711               	_ZN3LCD3offEv:
 2712               	.LFB37:
 2713               	.LM256:
 2714               	.LVL334:
 2715               	/* prologue: function */
 2716               	/* frame size = 0 */
 2717               	.LM257:
 2718 0d88 2898      		cbi 37-32,0
 2719               	.LM258:
 2720 0d8a 2A98      		cbi 37-32,2
 2721               	.LM259:
 2722 0d8c 2998      		cbi 37-32,1
 2723               	.LM260:
 2724 0d8e 7198      		cbi 46-32,1
 2725               	.LM261:
 2726 0d90 8D98      		cbi 49-32,5
 2727               	.LM262:
 2728 0d92 8E98      		cbi 49-32,6
 2729               	.LM263:
 2730 0d94 1698      		cbi 34-32,6
 2731               	.LM264:
 2732 0d96 1598      		cbi 34-32,5
 2733               	/* epilogue start */
 2734               	.LM265:
 2735 0d98 0895      		ret
 2736               	.LFE37:
 2738               	.global	_ZN3LCD5colorEh
 2740               	_ZN3LCD5colorEh:
 2741               	.LFB38:
 2742               	.LM266:
 2743               	.LVL335:
 2744               	/* prologue: function */
 2745               	/* frame size = 0 */
 2746 0d9a FC01      		movw r30,r24
 2747 0d9c E750      		subi r30,lo8(-(505))
 2748 0d9e FE4F      		sbci r31,hi8(-(505))
 2749               	.LM267:
 2750 0da0 6623      		tst r22
 2751 0da2 01F0      		breq .L172
 2752               	.LM268:
 2753 0da4 81E0      		ldi r24,lo8(1)
 2754               	.LVL336:
 2755 0da6 8083      		st Z,r24
 2756               	.LM269:
 2757 0da8 8D98      		cbi 49-32,5
 2758               	.LM270:
 2759 0daa 8E9A      		sbi 49-32,6
 2760 0dac 0895      		ret
 2761               	.LVL337:
 2762               	.L172:
 2763               	.LM271:
 2764 0dae 1082      		st Z,__zero_reg__
 2765               	.LM272:
 2766 0db0 8E98      		cbi 49-32,6
 2767               	.LM273:
 2768 0db2 8D9A      		sbi 49-32,5
 2769 0db4 0895      		ret
 2770               	.LFE38:
 2772               	.global	_ZN3LCD9backlightEh
 2774               	_ZN3LCD9backlightEh:
 2775               	.LFB39:
 2776               	.LM274:
 2777               	.LVL338:
 2778               	/* prologue: function */
 2779               	/* frame size = 0 */
 2780 0db6 FC01      		movw r30,r24
 2781               	.LBB100:
 2782               	.LM275:
 2783 0db8 E850      		subi r30,lo8(-(504))
 2784 0dba FE4F      		sbci r31,hi8(-(504))
 2785               	.LVL339:
 2786 0dbc 2081      		ld r18,Z
 2787               	.LVL340:
 2788 0dbe E85F      		subi r30,lo8(-(-504))
 2789 0dc0 F140      		sbci r31,hi8(-(-504))
 2790 0dc2 6217      		cp r22,r18
 2791 0dc4 00F0      		brlo .L176
 2792 0dc6 00C0      		rjmp .L185
 2793               	.LVL341:
 2794               	.L178:
 2795               	.LBB101:
 2796               	.LBB102:
 2797               	.LBB103:
 2798               	.LBB104:
 2799               	.LBB105:
 2800               	.LM276:
 2801 0dc8 CA01      		movw r24,r20
 2802               	/* #APP */
 2803               	 ;  110 "/usr/local/CrossPack-AVR-20100115/lib/gcc/avr/4.3.3/../../../../avr/include/util/delay_bas
 2804 0dca 0197      		1: sbiw r24,1
 2805 0dcc 01F4      		brne 1b
 2806               	 ;  0 "" 2
 2807               	/* #NOAPP */
 2808               	.LBE105:
 2809               	.LBE104:
 2810               	.LBE103:
 2811               	.LBE102:
 2812               	.LBE101:
 2813               	.LM277:
 2814 0dce 2695      		lsr r18
 2815 0dd0 00C0      		rjmp .L183
 2816               	.LVL342:
 2817               	.L176:
 2818               	.LBB110:
 2819               	.LBB109:
 2820               	.LBB108:
 2821               	.LBB107:
 2822               	.LBB106:
 2823               	.LM278:
 2824 0dd2 40E4      		ldi r20,lo8(-25536)
 2825 0dd4 5CE9      		ldi r21,hi8(-25536)
 2826               	.LVL343:
 2827               	.L183:
 2828               	.LBE106:
 2829               	.LBE107:
 2830               	.LBE108:
 2831               	.LBE109:
 2832               	.LBE110:
 2833               	.LM279:
 2834 0dd6 6217      		cp r22,r18
 2835 0dd8 00F0      		brlo .L178
 2836 0dda 00C0      		rjmp .L179
 2837               	.LVL344:
 2838               	.L180:
 2839               	.LBB111:
 2840               	.LBB112:
 2841               	.LBB113:
 2842               	.LBB114:
 2843               	.LBB115:
 2844               	.LBB116:
 2845               	.LBB117:
 2846               	.LBB118:
 2847               	.LM280:
 2848 0ddc CA01      		movw r24,r20
 2849               	/* #APP */
 2850               	 ;  110 "/usr/local/CrossPack-AVR-20100115/lib/gcc/avr/4.3.3/../../../../avr/include/util/delay_bas
 2851 0dde 0197      		1: sbiw r24,1
 2852 0de0 01F4      		brne 1b
 2853               	 ;  0 "" 2
 2854               	/* #NOAPP */
 2855               	.LBE118:
 2856               	.LBE117:
 2857               	.LBE116:
 2858               	.LBE115:
 2859               	.LBE114:
 2860               	.LBE113:
 2861               	.LBE112:
 2862               	.LBE111:
 2863               	.LM281:
 2864 0de2 2F5F      		subi r18,lo8(-(1))
 2865 0de4 00C0      		rjmp .L184
 2866               	.LVL345:
 2867               	.L185:
 2868               	.LBB126:
 2869               	.LBB125:
 2870               	.LBB124:
 2871               	.LBB123:
 2872               	.LBB122:
 2873               	.LBB121:
 2874               	.LBB120:
 2875               	.LBB119:
 2876               	.LM282:
 2877 0de6 48E5      		ldi r20,lo8(600)
 2878 0de8 52E0      		ldi r21,hi8(600)
 2879               	.LVL346:
 2880               	.L184:
 2881               	.LBE119:
 2882               	.LBE120:
 2883               	.LBE121:
 2884               	.LBE122:
 2885               	.LBE123:
 2886               	.LBE124:
 2887               	.LBE125:
 2888               	.LBE126:
 2889               	.LM283:
 2890 0dea 2617      		cp r18,r22
 2891 0dec 00F0      		brlo .L180
 2892               	.LVL347:
 2893               	.L179:
 2894               	.LM284:
 2895 0dee E850      		subi r30,lo8(-(504))
 2896 0df0 FE4F      		sbci r31,hi8(-(504))
 2897 0df2 6083      		st Z,r22
 2898               	/* epilogue start */
 2899               	.LBE100:
 2900               	.LM285:
 2901 0df4 0895      		ret
 2902               	.LFE39:
 2904               	.global	_ZN3LCD4initEv
 2906               	_ZN3LCD4initEv:
 2907               	.LFB33:
 2908               	.LM286:
 2909               	.LVL348:
 2910 0df6 0F93      		push r16
 2911 0df8 1F93      		push r17
 2912               	/* prologue: function */
 2913               	/* frame size = 0 */
 2914 0dfa 8C01      		movw r16,r24
 2915               	.LM287:
 2916 0dfc 209A      		sbi 36-32,0
 2917               	.LM288:
 2918 0dfe 229A      		sbi 36-32,2
 2919               	.LM289:
 2920 0e00 219A      		sbi 36-32,1
 2921               	.LM290:
 2922 0e02 699A      		sbi 45-32,1
 2923               	.LM291:
 2924 0e04 859A      		sbi 48-32,5
 2925               	.LM292:
 2926 0e06 869A      		sbi 48-32,6
 2927               	.LM293:
 2928 0e08 259A      		sbi 36-32,5
 2929               	.LM294:
 2930 0e0a 0E9A      		sbi 33-32,6
 2931               	.LM295:
 2932 0e0c 0D9A      		sbi 33-32,5
 2933               	.LM296:
 2934 0e0e 719A      		sbi 46-32,1
 2935               	.LM297:
 2936 0e10 FC01      		movw r30,r24
 2937 0e12 E750      		subi r30,lo8(-(505))
 2938 0e14 FE4F      		sbci r31,hi8(-(505))
 2939 0e16 6081      		ld r22,Z
 2940 0e18 0E94 0000 		call _ZN3LCD5colorEh
 2941               	.LVL349:
 2942               	.LBB127:
 2943               	.LBB128:
 2944               	.LBB129:
 2945               	.LBB130:
 2946               	.LBB131:
 2947               	.LM298:
 2948 0e1c 8AE1      		ldi r24,lo8(26)
 2949               	.LVL350:
 2950               	/* #APP */
 2951               	 ;  88 "/usr/local/CrossPack-AVR-20100115/lib/gcc/avr/4.3.3/../../../../avr/include/util/delay_basi
 2952 0e1e 8A95      		1: dec r24
 2953 0e20 01F4      		brne 1b
 2954               	 ;  0 "" 2
 2955               	/* #NOAPP */
 2956               	.LBE131:
 2957               	.LBE130:
 2958               	.LBE129:
 2959               	.LBE128:
 2960               	.LBE127:
 2961               	.LM299:
 2962 0e22 1598      		cbi 34-32,5
 2963               	.LBB132:
 2964               	.LBB133:
 2965               	.LBB134:
 2966               	.LBB135:
 2967               	.LBB136:
 2968               	.LM300:
 2969 0e24 82E0      		ldi r24,lo8(2)
 2970               	.LVL351:
 2971               	/* #APP */
 2972               	 ;  88 "/usr/local/CrossPack-AVR-20100115/lib/gcc/avr/4.3.3/../../../../avr/include/util/delay_basi
 2973 0e26 8A95      		1: dec r24
 2974 0e28 01F4      		brne 1b
 2975               	 ;  0 "" 2
 2976               	/* #NOAPP */
 2977               	.LBE136:
 2978               	.LBE135:
 2979               	.LBE134:
 2980               	.LBE133:
 2981               	.LBE132:
 2982               	.LM301:
 2983 0e2a 159A      		sbi 34-32,5
 2984               	.LM302:
 2985 0e2c 81E5      		ldi r24,lo8(81)
 2986               	.LVL352:
 2987 0e2e 8CBD      		out 76-32,r24
 2988               	.LM303:
 2989 0e30 C801      		movw r24,r16
 2990 0e32 61E2      		ldi r22,lo8(33)
 2991 0e34 40E0      		ldi r20,lo8(0)
 2992 0e36 0E94 0000 		call _ZN3LCD9writeByteEhh
 2993               	.LM304:
 2994 0e3a C801      		movw r24,r16
 2995 0e3c 60EC      		ldi r22,lo8(-64)
 2996 0e3e 40E0      		ldi r20,lo8(0)
 2997 0e40 0E94 0000 		call _ZN3LCD9writeByteEhh
 2998               	.LM305:
 2999 0e44 C801      		movw r24,r16
 3000 0e46 66E0      		ldi r22,lo8(6)
 3001 0e48 40E0      		ldi r20,lo8(0)
 3002 0e4a 0E94 0000 		call _ZN3LCD9writeByteEhh
 3003               	.LM306:
 3004 0e4e C801      		movw r24,r16
 3005 0e50 63E1      		ldi r22,lo8(19)
 3006 0e52 40E0      		ldi r20,lo8(0)
 3007 0e54 0E94 0000 		call _ZN3LCD9writeByteEhh
 3008               	.LM307:
 3009 0e58 C801      		movw r24,r16
 3010 0e5a 60E2      		ldi r22,lo8(32)
 3011 0e5c 40E0      		ldi r20,lo8(0)
 3012 0e5e 0E94 0000 		call _ZN3LCD9writeByteEhh
 3013               	.LM308:
 3014 0e62 C801      		movw r24,r16
 3015 0e64 0E94 0000 		call _ZN3LCD5clearEv
 3016               	.LM309:
 3017 0e68 C801      		movw r24,r16
 3018 0e6a 6CE0      		ldi r22,lo8(12)
 3019 0e6c 40E0      		ldi r20,lo8(0)
 3020 0e6e 0E94 0000 		call _ZN3LCD9writeByteEhh
 3021               	.LM310:
 3022 0e72 C801      		movw r24,r16
 3023 0e74 6FEF      		ldi r22,lo8(-1)
 3024 0e76 0E94 0000 		call _ZN3LCD9backlightEh
 3025               	/* epilogue start */
 3026               	.LM311:
 3027 0e7a 1F91      		pop r17
 3028 0e7c 0F91      		pop r16
 3029               	.LVL353:
 3030 0e7e 0895      		ret
 3031               	.LFE33:
 3033               	.global	_ZN3LCD12getBacklightEv
 3035               	_ZN3LCD12getBacklightEv:
 3036               	.LFB40:
 3037               	.LM312:
 3038               	.LVL354:
 3039               	/* prologue: function */
 3040               	/* frame size = 0 */
 3041               	.LM313:
 3042 0e80 FC01      		movw r30,r24
 3043 0e82 E850      		subi r30,lo8(-(504))
 3044 0e84 FE4F      		sbci r31,hi8(-(504))
 3045               	.LM314:
 3046 0e86 8081      		ld r24,Z
 3047               	.LVL355:
 3048               	/* epilogue start */
 3049 0e88 0895      		ret
 3050               	.LFE40:
 3052               	.global	font6_8
 3053               		.section	.progmem.data,"a",@progbits
 3056               	font6_8:
 3057 0000 00        		.byte	0
 3058 0001 00        		.byte	0
 3059 0002 00        		.byte	0
 3060 0003 00        		.byte	0
 3061 0004 00        		.byte	0
 3062 0005 00        		.byte	0
 3063 0006 00        		.byte	0
 3064 0007 00        		.byte	0
 3065 0008 00        		.byte	0
 3066 0009 2F        		.byte	47
 3067 000a 00        		.byte	0
 3068 000b 00        		.byte	0
 3069 000c 00        		.byte	0
 3070 000d 00        		.byte	0
 3071 000e 07        		.byte	7
 3072 000f 00        		.byte	0
 3073 0010 07        		.byte	7
 3074 0011 00        		.byte	0
 3075 0012 00        		.byte	0
 3076 0013 14        		.byte	20
 3077 0014 7F        		.byte	127
 3078 0015 14        		.byte	20
 3079 0016 7F        		.byte	127
 3080 0017 14        		.byte	20
 3081 0018 00        		.byte	0
 3082 0019 24        		.byte	36
 3083 001a 2A        		.byte	42
 3084 001b 7F        		.byte	127
 3085 001c 2A        		.byte	42
 3086 001d 12        		.byte	18
 3087 001e 00        		.byte	0
 3088 001f 62        		.byte	98
 3089 0020 64        		.byte	100
 3090 0021 08        		.byte	8
 3091 0022 13        		.byte	19
 3092 0023 23        		.byte	35
 3093 0024 00        		.byte	0
 3094 0025 36        		.byte	54
 3095 0026 49        		.byte	73
 3096 0027 55        		.byte	85
 3097 0028 22        		.byte	34
 3098 0029 50        		.byte	80
 3099 002a 00        		.byte	0
 3100 002b 00        		.byte	0
 3101 002c 05        		.byte	5
 3102 002d 03        		.byte	3
 3103 002e 00        		.byte	0
 3104 002f 00        		.byte	0
 3105 0030 00        		.byte	0
 3106 0031 00        		.byte	0
 3107 0032 1C        		.byte	28
 3108 0033 22        		.byte	34
 3109 0034 41        		.byte	65
 3110 0035 00        		.byte	0
 3111 0036 00        		.byte	0
 3112 0037 00        		.byte	0
 3113 0038 41        		.byte	65
 3114 0039 22        		.byte	34
 3115 003a 1C        		.byte	28
 3116 003b 00        		.byte	0
 3117 003c 00        		.byte	0
 3118 003d 14        		.byte	20
 3119 003e 08        		.byte	8
 3120 003f 3E        		.byte	62
 3121 0040 08        		.byte	8
 3122 0041 14        		.byte	20
 3123 0042 00        		.byte	0
 3124 0043 08        		.byte	8
 3125 0044 08        		.byte	8
 3126 0045 3E        		.byte	62
 3127 0046 08        		.byte	8
 3128 0047 08        		.byte	8
 3129 0048 00        		.byte	0
 3130 0049 00        		.byte	0
 3131 004a 00        		.byte	0
 3132 004b A0        		.byte	-96
 3133 004c 60        		.byte	96
 3134 004d 00        		.byte	0
 3135 004e 00        		.byte	0
 3136 004f 08        		.byte	8
 3137 0050 08        		.byte	8
 3138 0051 08        		.byte	8
 3139 0052 08        		.byte	8
 3140 0053 08        		.byte	8
 3141 0054 00        		.byte	0
 3142 0055 00        		.byte	0
 3143 0056 60        		.byte	96
 3144 0057 60        		.byte	96
 3145 0058 00        		.byte	0
 3146 0059 00        		.byte	0
 3147 005a 00        		.byte	0
 3148 005b 20        		.byte	32
 3149 005c 10        		.byte	16
 3150 005d 08        		.byte	8
 3151 005e 04        		.byte	4
 3152 005f 02        		.byte	2
 3153 0060 00        		.byte	0
 3154 0061 3E        		.byte	62
 3155 0062 51        		.byte	81
 3156 0063 49        		.byte	73
 3157 0064 45        		.byte	69
 3158 0065 3E        		.byte	62
 3159 0066 00        		.byte	0
 3160 0067 00        		.byte	0
 3161 0068 42        		.byte	66
 3162 0069 7F        		.byte	127
 3163 006a 40        		.byte	64
 3164 006b 00        		.byte	0
 3165 006c 00        		.byte	0
 3166 006d 42        		.byte	66
 3167 006e 61        		.byte	97
 3168 006f 51        		.byte	81
 3169 0070 49        		.byte	73
 3170 0071 46        		.byte	70
 3171 0072 00        		.byte	0
 3172 0073 21        		.byte	33
 3173 0074 41        		.byte	65
 3174 0075 45        		.byte	69
 3175 0076 4B        		.byte	75
 3176 0077 31        		.byte	49
 3177 0078 00        		.byte	0
 3178 0079 18        		.byte	24
 3179 007a 14        		.byte	20
 3180 007b 12        		.byte	18
 3181 007c 7F        		.byte	127
 3182 007d 10        		.byte	16
 3183 007e 00        		.byte	0
 3184 007f 27        		.byte	39
 3185 0080 45        		.byte	69
 3186 0081 45        		.byte	69
 3187 0082 45        		.byte	69
 3188 0083 39        		.byte	57
 3189 0084 00        		.byte	0
 3190 0085 3C        		.byte	60
 3191 0086 4A        		.byte	74
 3192 0087 49        		.byte	73
 3193 0088 49        		.byte	73
 3194 0089 30        		.byte	48
 3195 008a 00        		.byte	0
 3196 008b 01        		.byte	1
 3197 008c 71        		.byte	113
 3198 008d 09        		.byte	9
 3199 008e 05        		.byte	5
 3200 008f 03        		.byte	3
 3201 0090 00        		.byte	0
 3202 0091 36        		.byte	54
 3203 0092 49        		.byte	73
 3204 0093 49        		.byte	73
 3205 0094 49        		.byte	73
 3206 0095 36        		.byte	54
 3207 0096 00        		.byte	0
 3208 0097 06        		.byte	6
 3209 0098 49        		.byte	73
 3210 0099 49        		.byte	73
 3211 009a 29        		.byte	41
 3212 009b 1E        		.byte	30
 3213 009c 00        		.byte	0
 3214 009d 00        		.byte	0
 3215 009e 36        		.byte	54
 3216 009f 36        		.byte	54
 3217 00a0 00        		.byte	0
 3218 00a1 00        		.byte	0
 3219 00a2 00        		.byte	0
 3220 00a3 00        		.byte	0
 3221 00a4 56        		.byte	86
 3222 00a5 36        		.byte	54
 3223 00a6 00        		.byte	0
 3224 00a7 00        		.byte	0
 3225 00a8 00        		.byte	0
 3226 00a9 08        		.byte	8
 3227 00aa 14        		.byte	20
 3228 00ab 22        		.byte	34
 3229 00ac 41        		.byte	65
 3230 00ad 00        		.byte	0
 3231 00ae 00        		.byte	0
 3232 00af 14        		.byte	20
 3233 00b0 14        		.byte	20
 3234 00b1 14        		.byte	20
 3235 00b2 14        		.byte	20
 3236 00b3 14        		.byte	20
 3237 00b4 00        		.byte	0
 3238 00b5 00        		.byte	0
 3239 00b6 41        		.byte	65
 3240 00b7 22        		.byte	34
 3241 00b8 14        		.byte	20
 3242 00b9 08        		.byte	8
 3243 00ba 00        		.byte	0
 3244 00bb 02        		.byte	2
 3245 00bc 01        		.byte	1
 3246 00bd 51        		.byte	81
 3247 00be 09        		.byte	9
 3248 00bf 06        		.byte	6
 3249 00c0 00        		.byte	0
 3250 00c1 32        		.byte	50
 3251 00c2 49        		.byte	73
 3252 00c3 59        		.byte	89
 3253 00c4 51        		.byte	81
 3254 00c5 3E        		.byte	62
 3255 00c6 00        		.byte	0
 3256 00c7 7C        		.byte	124
 3257 00c8 12        		.byte	18
 3258 00c9 11        		.byte	17
 3259 00ca 12        		.byte	18
 3260 00cb 7C        		.byte	124
 3261 00cc 00        		.byte	0
 3262 00cd 7F        		.byte	127
 3263 00ce 49        		.byte	73
 3264 00cf 49        		.byte	73
 3265 00d0 49        		.byte	73
 3266 00d1 36        		.byte	54
 3267 00d2 00        		.byte	0
 3268 00d3 3E        		.byte	62
 3269 00d4 41        		.byte	65
 3270 00d5 41        		.byte	65
 3271 00d6 41        		.byte	65
 3272 00d7 22        		.byte	34
 3273 00d8 00        		.byte	0
 3274 00d9 7F        		.byte	127
 3275 00da 41        		.byte	65
 3276 00db 41        		.byte	65
 3277 00dc 22        		.byte	34
 3278 00dd 1C        		.byte	28
 3279 00de 00        		.byte	0
 3280 00df 7F        		.byte	127
 3281 00e0 49        		.byte	73
 3282 00e1 49        		.byte	73
 3283 00e2 49        		.byte	73
 3284 00e3 41        		.byte	65
 3285 00e4 00        		.byte	0
 3286 00e5 7F        		.byte	127
 3287 00e6 09        		.byte	9
 3288 00e7 09        		.byte	9
 3289 00e8 09        		.byte	9
 3290 00e9 01        		.byte	1
 3291 00ea 00        		.byte	0
 3292 00eb 3E        		.byte	62
 3293 00ec 41        		.byte	65
 3294 00ed 49        		.byte	73
 3295 00ee 49        		.byte	73
 3296 00ef 7A        		.byte	122
 3297 00f0 00        		.byte	0
 3298 00f1 7F        		.byte	127
 3299 00f2 08        		.byte	8
 3300 00f3 08        		.byte	8
 3301 00f4 08        		.byte	8
 3302 00f5 7F        		.byte	127
 3303 00f6 00        		.byte	0
 3304 00f7 00        		.byte	0
 3305 00f8 41        		.byte	65
 3306 00f9 7F        		.byte	127
 3307 00fa 41        		.byte	65
 3308 00fb 00        		.byte	0
 3309 00fc 00        		.byte	0
 3310 00fd 20        		.byte	32
 3311 00fe 40        		.byte	64
 3312 00ff 41        		.byte	65
 3313 0100 3F        		.byte	63
 3314 0101 01        		.byte	1
 3315 0102 00        		.byte	0
 3316 0103 7F        		.byte	127
 3317 0104 08        		.byte	8
 3318 0105 14        		.byte	20
 3319 0106 22        		.byte	34
 3320 0107 41        		.byte	65
 3321 0108 00        		.byte	0
 3322 0109 7F        		.byte	127
 3323 010a 40        		.byte	64
 3324 010b 40        		.byte	64
 3325 010c 40        		.byte	64
 3326 010d 40        		.byte	64
 3327 010e 00        		.byte	0
 3328 010f 7F        		.byte	127
 3329 0110 02        		.byte	2
 3330 0111 0C        		.byte	12
 3331 0112 02        		.byte	2
 3332 0113 7F        		.byte	127
 3333 0114 00        		.byte	0
 3334 0115 7F        		.byte	127
 3335 0116 04        		.byte	4
 3336 0117 08        		.byte	8
 3337 0118 10        		.byte	16
 3338 0119 7F        		.byte	127
 3339 011a 00        		.byte	0
 3340 011b 3E        		.byte	62
 3341 011c 41        		.byte	65
 3342 011d 41        		.byte	65
 3343 011e 41        		.byte	65
 3344 011f 3E        		.byte	62
 3345 0120 00        		.byte	0
 3346 0121 7F        		.byte	127
 3347 0122 09        		.byte	9
 3348 0123 09        		.byte	9
 3349 0124 09        		.byte	9
 3350 0125 06        		.byte	6
 3351 0126 00        		.byte	0
 3352 0127 3E        		.byte	62
 3353 0128 41        		.byte	65
 3354 0129 51        		.byte	81
 3355 012a 21        		.byte	33
 3356 012b 5E        		.byte	94
 3357 012c 00        		.byte	0
 3358 012d 7F        		.byte	127
 3359 012e 09        		.byte	9
 3360 012f 19        		.byte	25
 3361 0130 29        		.byte	41
 3362 0131 46        		.byte	70
 3363 0132 00        		.byte	0
 3364 0133 46        		.byte	70
 3365 0134 49        		.byte	73
 3366 0135 49        		.byte	73
 3367 0136 49        		.byte	73
 3368 0137 31        		.byte	49
 3369 0138 00        		.byte	0
 3370 0139 01        		.byte	1
 3371 013a 01        		.byte	1
 3372 013b 7F        		.byte	127
 3373 013c 01        		.byte	1
 3374 013d 01        		.byte	1
 3375 013e 00        		.byte	0
 3376 013f 3F        		.byte	63
 3377 0140 40        		.byte	64
 3378 0141 40        		.byte	64
 3379 0142 40        		.byte	64
 3380 0143 3F        		.byte	63
 3381 0144 00        		.byte	0
 3382 0145 1F        		.byte	31
 3383 0146 20        		.byte	32
 3384 0147 40        		.byte	64
 3385 0148 20        		.byte	32
 3386 0149 1F        		.byte	31
 3387 014a 00        		.byte	0
 3388 014b 3F        		.byte	63
 3389 014c 40        		.byte	64
 3390 014d 38        		.byte	56
 3391 014e 40        		.byte	64
 3392 014f 3F        		.byte	63
 3393 0150 00        		.byte	0
 3394 0151 63        		.byte	99
 3395 0152 14        		.byte	20
 3396 0153 08        		.byte	8
 3397 0154 14        		.byte	20
 3398 0155 63        		.byte	99
 3399 0156 00        		.byte	0
 3400 0157 07        		.byte	7
 3401 0158 08        		.byte	8
 3402 0159 70        		.byte	112
 3403 015a 08        		.byte	8
 3404 015b 07        		.byte	7
 3405 015c 00        		.byte	0
 3406 015d 61        		.byte	97
 3407 015e 51        		.byte	81
 3408 015f 49        		.byte	73
 3409 0160 45        		.byte	69
 3410 0161 43        		.byte	67
 3411 0162 00        		.byte	0
 3412 0163 00        		.byte	0
 3413 0164 7F        		.byte	127
 3414 0165 41        		.byte	65
 3415 0166 41        		.byte	65
 3416 0167 00        		.byte	0
 3417 0168 00        		.byte	0
 3418 0169 55        		.byte	85
 3419 016a 2A        		.byte	42
 3420 016b 55        		.byte	85
 3421 016c 2A        		.byte	42
 3422 016d 55        		.byte	85
 3423 016e 00        		.byte	0
 3424 016f 00        		.byte	0
 3425 0170 41        		.byte	65
 3426 0171 41        		.byte	65
 3427 0172 7F        		.byte	127
 3428 0173 00        		.byte	0
 3429 0174 00        		.byte	0
 3430 0175 04        		.byte	4
 3431 0176 02        		.byte	2
 3432 0177 01        		.byte	1
 3433 0178 02        		.byte	2
 3434 0179 04        		.byte	4
 3435 017a 00        		.byte	0
 3436 017b 40        		.byte	64
 3437 017c 40        		.byte	64
 3438 017d 40        		.byte	64
 3439 017e 40        		.byte	64
 3440 017f 40        		.byte	64
 3441 0180 00        		.byte	0
 3442 0181 00        		.byte	0
 3443 0182 01        		.byte	1
 3444 0183 02        		.byte	2
 3445 0184 04        		.byte	4
 3446 0185 00        		.byte	0
 3447 0186 00        		.byte	0
 3448 0187 20        		.byte	32
 3449 0188 54        		.byte	84
 3450 0189 54        		.byte	84
 3451 018a 54        		.byte	84
 3452 018b 78        		.byte	120
 3453 018c 00        		.byte	0
 3454 018d 7F        		.byte	127
 3455 018e 48        		.byte	72
 3456 018f 44        		.byte	68
 3457 0190 44        		.byte	68
 3458 0191 38        		.byte	56
 3459 0192 00        		.byte	0
 3460 0193 38        		.byte	56
 3461 0194 44        		.byte	68
 3462 0195 44        		.byte	68
 3463 0196 44        		.byte	68
 3464 0197 20        		.byte	32
 3465 0198 00        		.byte	0
 3466 0199 38        		.byte	56
 3467 019a 44        		.byte	68
 3468 019b 44        		.byte	68
 3469 019c 48        		.byte	72
 3470 019d 7F        		.byte	127
 3471 019e 00        		.byte	0
 3472 019f 38        		.byte	56
 3473 01a0 54        		.byte	84
 3474 01a1 54        		.byte	84
 3475 01a2 54        		.byte	84
 3476 01a3 18        		.byte	24
 3477 01a4 00        		.byte	0
 3478 01a5 08        		.byte	8
 3479 01a6 7E        		.byte	126
 3480 01a7 09        		.byte	9
 3481 01a8 01        		.byte	1
 3482 01a9 02        		.byte	2
 3483 01aa 00        		.byte	0
 3484 01ab 18        		.byte	24
 3485 01ac A4        		.byte	-92
 3486 01ad A4        		.byte	-92
 3487 01ae A4        		.byte	-92
 3488 01af 7C        		.byte	124
 3489 01b0 00        		.byte	0
 3490 01b1 7F        		.byte	127
 3491 01b2 08        		.byte	8
 3492 01b3 04        		.byte	4
 3493 01b4 04        		.byte	4
 3494 01b5 78        		.byte	120
 3495 01b6 00        		.byte	0
 3496 01b7 00        		.byte	0
 3497 01b8 44        		.byte	68
 3498 01b9 7D        		.byte	125
 3499 01ba 40        		.byte	64
 3500 01bb 00        		.byte	0
 3501 01bc 00        		.byte	0
 3502 01bd 40        		.byte	64
 3503 01be 80        		.byte	-128
 3504 01bf 84        		.byte	-124
 3505 01c0 7D        		.byte	125
 3506 01c1 00        		.byte	0
 3507 01c2 00        		.byte	0
 3508 01c3 7F        		.byte	127
 3509 01c4 10        		.byte	16
 3510 01c5 28        		.byte	40
 3511 01c6 44        		.byte	68
 3512 01c7 00        		.byte	0
 3513 01c8 00        		.byte	0
 3514 01c9 00        		.byte	0
 3515 01ca 41        		.byte	65
 3516 01cb 7F        		.byte	127
 3517 01cc 40        		.byte	64
 3518 01cd 00        		.byte	0
 3519 01ce 00        		.byte	0
 3520 01cf 7C        		.byte	124
 3521 01d0 04        		.byte	4
 3522 01d1 18        		.byte	24
 3523 01d2 04        		.byte	4
 3524 01d3 78        		.byte	120
 3525 01d4 00        		.byte	0
 3526 01d5 7C        		.byte	124
 3527 01d6 08        		.byte	8
 3528 01d7 04        		.byte	4
 3529 01d8 04        		.byte	4
 3530 01d9 78        		.byte	120
 3531 01da 00        		.byte	0
 3532 01db 38        		.byte	56
 3533 01dc 44        		.byte	68
 3534 01dd 44        		.byte	68
 3535 01de 44        		.byte	68
 3536 01df 38        		.byte	56
 3537 01e0 00        		.byte	0
 3538 01e1 FC        		.byte	-4
 3539 01e2 24        		.byte	36
 3540 01e3 24        		.byte	36
 3541 01e4 24        		.byte	36
 3542 01e5 18        		.byte	24
 3543 01e6 00        		.byte	0
 3544 01e7 18        		.byte	24
 3545 01e8 24        		.byte	36
 3546 01e9 24        		.byte	36
 3547 01ea 18        		.byte	24
 3548 01eb FC        		.byte	-4
 3549 01ec 00        		.byte	0
 3550 01ed 7C        		.byte	124
 3551 01ee 08        		.byte	8
 3552 01ef 04        		.byte	4
 3553 01f0 04        		.byte	4
 3554 01f1 08        		.byte	8
 3555 01f2 00        		.byte	0
 3556 01f3 48        		.byte	72
 3557 01f4 54        		.byte	84
 3558 01f5 54        		.byte	84
 3559 01f6 54        		.byte	84
 3560 01f7 20        		.byte	32
 3561 01f8 00        		.byte	0
 3562 01f9 04        		.byte	4
 3563 01fa 3F        		.byte	63
 3564 01fb 44        		.byte	68
 3565 01fc 40        		.byte	64
 3566 01fd 20        		.byte	32
 3567 01fe 00        		.byte	0
 3568 01ff 3C        		.byte	60
 3569 0200 40        		.byte	64
 3570 0201 40        		.byte	64
 3571 0202 20        		.byte	32
 3572 0203 7C        		.byte	124
 3573 0204 00        		.byte	0
 3574 0205 1C        		.byte	28
 3575 0206 20        		.byte	32
 3576 0207 40        		.byte	64
 3577 0208 20        		.byte	32
 3578 0209 1C        		.byte	28
 3579 020a 00        		.byte	0
 3580 020b 3C        		.byte	60
 3581 020c 40        		.byte	64
 3582 020d 30        		.byte	48
 3583 020e 40        		.byte	64
 3584 020f 3C        		.byte	60
 3585 0210 00        		.byte	0
 3586 0211 44        		.byte	68
 3587 0212 28        		.byte	40
 3588 0213 10        		.byte	16
 3589 0214 28        		.byte	40
 3590 0215 44        		.byte	68
 3591 0216 00        		.byte	0
 3592 0217 1C        		.byte	28
 3593 0218 A0        		.byte	-96
 3594 0219 A0        		.byte	-96
 3595 021a A0        		.byte	-96
 3596 021b 7C        		.byte	124
 3597 021c 00        		.byte	0
 3598 021d 44        		.byte	68
 3599 021e 64        		.byte	100
 3600 021f 54        		.byte	84
 3601 0220 4C        		.byte	76
 3602 0221 44        		.byte	68
 3603 0222 00        		.byte	0
 3604 0223 00        		.byte	0
 3605 0224 06        		.byte	6
 3606 0225 09        		.byte	9
 3607 0226 09        		.byte	9
 3608 0227 06        		.byte	6
 3609               	.global	small_font
 3612               	small_font:
 3613 0228 03        		.byte	3
 3614 0229 00        		.byte	0
 3615 022a 00        		.byte	0
 3616 022b 00        		.byte	0
 3617 022c 00        		.byte	0
 3618 022d 00        		.byte	0
 3619 022e 02        		.byte	2
 3620 022f 5E        		.byte	94
 3621 0230 00        		.byte	0
 3622 0231 00        		.byte	0
 3623 0232 00        		.byte	0
 3624 0233 00        		.byte	0
 3625 0234 04        		.byte	4
 3626 0235 06        		.byte	6
 3627 0236 00        		.byte	0
 3628 0237 06        		.byte	6
 3629 0238 00        		.byte	0
 3630 0239 00        		.byte	0
 3631 023a 06        		.byte	6
 3632 023b 14        		.byte	20
 3633 023c 3E        		.byte	62
 3634 023d 14        		.byte	20
 3635 023e 3E        		.byte	62
 3636 023f 14        		.byte	20
 3637 0240 06        		.byte	6
 3638 0241 24        		.byte	36
 3639 0242 2A        		.byte	42
 3640 0243 7E        		.byte	126
 3641 0244 2A        		.byte	42
 3642 0245 12        		.byte	18
 3643 0246 06        		.byte	6
 3644 0247 44        		.byte	68
 3645 0248 20        		.byte	32
 3646 0249 10        		.byte	16
 3647 024a 08        		.byte	8
 3648 024b 44        		.byte	68
 3649 024c 06        		.byte	6
 3650 024d 34        		.byte	52
 3651 024e 4A        		.byte	74
 3652 024f 54        		.byte	84
 3653 0250 20        		.byte	32
 3654 0251 50        		.byte	80
 3655 0252 03        		.byte	3
 3656 0253 04        		.byte	4
 3657 0254 02        		.byte	2
 3658 0255 00        		.byte	0
 3659 0256 00        		.byte	0
 3660 0257 00        		.byte	0
 3661 0258 03        		.byte	3
 3662 0259 3C        		.byte	60
 3663 025a 42        		.byte	66
 3664 025b 00        		.byte	0
 3665 025c 00        		.byte	0
 3666 025d 00        		.byte	0
 3667 025e 03        		.byte	3
 3668 025f 42        		.byte	66
 3669 0260 3C        		.byte	60
 3670 0261 00        		.byte	0
 3671 0262 00        		.byte	0
 3672 0263 00        		.byte	0
 3673 0264 05        		.byte	5
 3674 0265 54        		.byte	84
 3675 0266 38        		.byte	56
 3676 0267 38        		.byte	56
 3677 0268 54        		.byte	84
 3678 0269 00        		.byte	0
 3679 026a 04        		.byte	4
 3680 026b 10        		.byte	16
 3681 026c 38        		.byte	56
 3682 026d 10        		.byte	16
 3683 026e 00        		.byte	0
 3684 026f 00        		.byte	0
 3685 0270 03        		.byte	3
 3686 0271 40        		.byte	64
 3687 0272 20        		.byte	32
 3688 0273 00        		.byte	0
 3689 0274 00        		.byte	0
 3690 0275 00        		.byte	0
 3691 0276 04        		.byte	4
 3692 0277 10        		.byte	16
 3693 0278 10        		.byte	16
 3694 0279 10        		.byte	16
 3695 027a 00        		.byte	0
 3696 027b 00        		.byte	0
 3697 027c 02        		.byte	2
 3698 027d 40        		.byte	64
 3699 027e 00        		.byte	0
 3700 027f 00        		.byte	0
 3701 0280 00        		.byte	0
 3702 0281 00        		.byte	0
 3703 0282 06        		.byte	6
 3704 0283 40        		.byte	64
 3705 0284 20        		.byte	32
 3706 0285 10        		.byte	16
 3707 0286 08        		.byte	8
 3708 0287 04        		.byte	4
 3709 0288 05        		.byte	5
 3710 0289 3C        		.byte	60
 3711 028a 52        		.byte	82
 3712 028b 4A        		.byte	74
 3713 028c 3C        		.byte	60
 3714 028d 00        		.byte	0
 3715 028e 04        		.byte	4
 3716 028f 44        		.byte	68
 3717 0290 7E        		.byte	126
 3718 0291 40        		.byte	64
 3719 0292 00        		.byte	0
 3720 0293 00        		.byte	0
 3721 0294 05        		.byte	5
 3722 0295 64        		.byte	100
 3723 0296 52        		.byte	82
 3724 0297 4A        		.byte	74
 3725 0298 44        		.byte	68
 3726 0299 00        		.byte	0
 3727 029a 05        		.byte	5
 3728 029b 42        		.byte	66
 3729 029c 4A        		.byte	74
 3730 029d 4A        		.byte	74
 3731 029e 34        		.byte	52
 3732 029f 00        		.byte	0
 3733 02a0 05        		.byte	5
 3734 02a1 1E        		.byte	30
 3735 02a2 10        		.byte	16
 3736 02a3 7C        		.byte	124
 3737 02a4 10        		.byte	16
 3738 02a5 00        		.byte	0
 3739 02a6 05        		.byte	5
 3740 02a7 4E        		.byte	78
 3741 02a8 4A        		.byte	74
 3742 02a9 4A        		.byte	74
 3743 02aa 32        		.byte	50
 3744 02ab 00        		.byte	0
 3745 02ac 05        		.byte	5
 3746 02ad 3C        		.byte	60
 3747 02ae 4A        		.byte	74
 3748 02af 4A        		.byte	74
 3749 02b0 32        		.byte	50
 3750 02b1 00        		.byte	0
 3751 02b2 05        		.byte	5
 3752 02b3 02        		.byte	2
 3753 02b4 72        		.byte	114
 3754 02b5 0A        		.byte	10
 3755 02b6 06        		.byte	6
 3756 02b7 00        		.byte	0
 3757 02b8 05        		.byte	5
 3758 02b9 34        		.byte	52
 3759 02ba 4A        		.byte	74
 3760 02bb 4A        		.byte	74
 3761 02bc 34        		.byte	52
 3762 02bd 00        		.byte	0
 3763 02be 05        		.byte	5
 3764 02bf 0C        		.byte	12
 3765 02c0 52        		.byte	82
 3766 02c1 52        		.byte	82
 3767 02c2 3C        		.byte	60
 3768 02c3 00        		.byte	0
 3769 02c4 02        		.byte	2
 3770 02c5 24        		.byte	36
 3771 02c6 00        		.byte	0
 3772 02c7 00        		.byte	0
 3773 02c8 00        		.byte	0
 3774 02c9 00        		.byte	0
 3775 02ca 03        		.byte	3
 3776 02cb 40        		.byte	64
 3777 02cc 24        		.byte	36
 3778 02cd 00        		.byte	0
 3779 02ce 00        		.byte	0
 3780 02cf 00        		.byte	0
 3781 02d0 04        		.byte	4
 3782 02d1 10        		.byte	16
 3783 02d2 28        		.byte	40
 3784 02d3 44        		.byte	68
 3785 02d4 00        		.byte	0
 3786 02d5 00        		.byte	0
 3787 02d6 04        		.byte	4
 3788 02d7 28        		.byte	40
 3789 02d8 28        		.byte	40
 3790 02d9 28        		.byte	40
 3791 02da 00        		.byte	0
 3792 02db 00        		.byte	0
 3793 02dc 04        		.byte	4
 3794 02dd 44        		.byte	68
 3795 02de 28        		.byte	40
 3796 02df 10        		.byte	16
 3797 02e0 00        		.byte	0
 3798 02e1 00        		.byte	0
 3799 02e2 05        		.byte	5
 3800 02e3 04        		.byte	4
 3801 02e4 52        		.byte	82
 3802 02e5 0A        		.byte	10
 3803 02e6 04        		.byte	4
 3804 02e7 00        		.byte	0
 3805 02e8 06        		.byte	6
 3806 02e9 38        		.byte	56
 3807 02ea 04        		.byte	4
 3808 02eb 34        		.byte	52
 3809 02ec 44        		.byte	68
 3810 02ed 38        		.byte	56
 3811 02ee 05        		.byte	5
 3812 02ef 7C        		.byte	124
 3813 02f0 12        		.byte	18
 3814 02f1 12        		.byte	18
 3815 02f2 7C        		.byte	124
 3816 02f3 00        		.byte	0
 3817 02f4 05        		.byte	5
 3818 02f5 7E        		.byte	126
 3819 02f6 4A        		.byte	74
 3820 02f7 4A        		.byte	74
 3821 02f8 34        		.byte	52
 3822 02f9 00        		.byte	0
 3823 02fa 05        		.byte	5
 3824 02fb 3C        		.byte	60
 3825 02fc 42        		.byte	66
 3826 02fd 42        		.byte	66
 3827 02fe 24        		.byte	36
 3828 02ff 00        		.byte	0
 3829 0300 05        		.byte	5
 3830 0301 7E        		.byte	126
 3831 0302 42        		.byte	66
 3832 0303 42        		.byte	66
 3833 0304 3C        		.byte	60
 3834 0305 00        		.byte	0
 3835 0306 05        		.byte	5
 3836 0307 7E        		.byte	126
 3837 0308 4A        		.byte	74
 3838 0309 4A        		.byte	74
 3839 030a 42        		.byte	66
 3840 030b 00        		.byte	0
 3841 030c 05        		.byte	5
 3842 030d 7E        		.byte	126
 3843 030e 0A        		.byte	10
 3844 030f 0A        		.byte	10
 3845 0310 02        		.byte	2
 3846 0311 00        		.byte	0
 3847 0312 05        		.byte	5
 3848 0313 3C        		.byte	60
 3849 0314 42        		.byte	66
 3850 0315 52        		.byte	82
 3851 0316 34        		.byte	52
 3852 0317 00        		.byte	0
 3853 0318 05        		.byte	5
 3854 0319 7E        		.byte	126
 3855 031a 08        		.byte	8
 3856 031b 08        		.byte	8
 3857 031c 7E        		.byte	126
 3858 031d 00        		.byte	0
 3859 031e 02        		.byte	2
 3860 031f 7E        		.byte	126
 3861 0320 00        		.byte	0
 3862 0321 00        		.byte	0
 3863 0322 00        		.byte	0
 3864 0323 00        		.byte	0
 3865 0324 04        		.byte	4
 3866 0325 20        		.byte	32
 3867 0326 40        		.byte	64
 3868 0327 3E        		.byte	62
 3869 0328 00        		.byte	0
 3870 0329 00        		.byte	0
 3871 032a 06        		.byte	6
 3872 032b 7E        		.byte	126
 3873 032c 08        		.byte	8
 3874 032d 14        		.byte	20
 3875 032e 22        		.byte	34
 3876 032f 40        		.byte	64
 3877 0330 05        		.byte	5
 3878 0331 7E        		.byte	126
 3879 0332 40        		.byte	64
 3880 0333 40        		.byte	64
 3881 0334 40        		.byte	64
 3882 0335 00        		.byte	0
 3883 0336 06        		.byte	6
 3884 0337 7E        		.byte	126
 3885 0338 04        		.byte	4
 3886 0339 08        		.byte	8
 3887 033a 04        		.byte	4
 3888 033b 7E        		.byte	126
 3889 033c 06        		.byte	6
 3890 033d 7E        		.byte	126
 3891 033e 04        		.byte	4
 3892 033f 08        		.byte	8
 3893 0340 10        		.byte	16
 3894 0341 7E        		.byte	126
 3895 0342 05        		.byte	5
 3896 0343 3C        		.byte	60
 3897 0344 42        		.byte	66
 3898 0345 42        		.byte	66
 3899 0346 3C        		.byte	60
 3900 0347 00        		.byte	0
 3901 0348 05        		.byte	5
 3902 0349 7E        		.byte	126
 3903 034a 12        		.byte	18
 3904 034b 12        		.byte	18
 3905 034c 0C        		.byte	12
 3906 034d 00        		.byte	0
 3907 034e 05        		.byte	5
 3908 034f 3C        		.byte	60
 3909 0350 42        		.byte	66
 3910 0351 22        		.byte	34
 3911 0352 5C        		.byte	92
 3912 0353 00        		.byte	0
 3913 0354 05        		.byte	5
 3914 0355 7E        		.byte	126
 3915 0356 12        		.byte	18
 3916 0357 32        		.byte	50
 3917 0358 4C        		.byte	76
 3918 0359 00        		.byte	0
 3919 035a 05        		.byte	5
 3920 035b 24        		.byte	36
 3921 035c 4A        		.byte	74
 3922 035d 52        		.byte	82
 3923 035e 24        		.byte	36
 3924 035f 00        		.byte	0
 3925 0360 06        		.byte	6
 3926 0361 02        		.byte	2
 3927 0362 02        		.byte	2
 3928 0363 7E        		.byte	126
 3929 0364 02        		.byte	2
 3930 0365 02        		.byte	2
 3931 0366 05        		.byte	5
 3932 0367 3E        		.byte	62
 3933 0368 40        		.byte	64
 3934 0369 40        		.byte	64
 3935 036a 3E        		.byte	62
 3936 036b 00        		.byte	0
 3937 036c 06        		.byte	6
 3938 036d 0E        		.byte	14
 3939 036e 30        		.byte	48
 3940 036f 40        		.byte	64
 3941 0370 30        		.byte	48
 3942 0371 0E        		.byte	14
 3943 0372 06        		.byte	6
 3944 0373 3E        		.byte	62
 3945 0374 40        		.byte	64
 3946 0375 20        		.byte	32
 3947 0376 40        		.byte	64
 3948 0377 3E        		.byte	62
 3949 0378 06        		.byte	6
 3950 0379 42        		.byte	66
 3951 037a 24        		.byte	36
 3952 037b 18        		.byte	24
 3953 037c 24        		.byte	36
 3954 037d 42        		.byte	66
 3955 037e 06        		.byte	6
 3956 037f 06        		.byte	6
 3957 0380 08        		.byte	8
 3958 0381 70        		.byte	112
 3959 0382 08        		.byte	8
 3960 0383 06        		.byte	6
 3961 0384 05        		.byte	5
 3962 0385 62        		.byte	98
 3963 0386 52        		.byte	82
 3964 0387 4A        		.byte	74
 3965 0388 46        		.byte	70
 3966 0389 00        		.byte	0
 3967 038a 03        		.byte	3
 3968 038b 7E        		.byte	126
 3969 038c 42        		.byte	66
 3970 038d 00        		.byte	0
 3971 038e 00        		.byte	0
 3972 038f 00        		.byte	0
 3973 0390 06        		.byte	6
 3974 0391 04        		.byte	4
 3975 0392 08        		.byte	8
 3976 0393 10        		.byte	16
 3977 0394 20        		.byte	32
 3978 0395 40        		.byte	64
 3979 0396 03        		.byte	3
 3980 0397 42        		.byte	66
 3981 0398 7E        		.byte	126
 3982 0399 00        		.byte	0
 3983 039a 00        		.byte	0
 3984 039b 00        		.byte	0
 3985 039c 04        		.byte	4
 3986 039d 04        		.byte	4
 3987 039e 02        		.byte	2
 3988 039f 04        		.byte	4
 3989 03a0 00        		.byte	0
 3990 03a1 00        		.byte	0
 3991 03a2 05        		.byte	5
 3992 03a3 40        		.byte	64
 3993 03a4 40        		.byte	64
 3994 03a5 40        		.byte	64
 3995 03a6 40        		.byte	64
 3996 03a7 00        		.byte	0
 3997 03a8 06        		.byte	6
 3998 03a9 20        		.byte	32
 3999 03aa 54        		.byte	84
 4000 03ab 54        		.byte	84
 4001 03ac 54        		.byte	84
 4002 03ad 78        		.byte	120
 4003 03ae 06        		.byte	6
 4004 03af 7F        		.byte	127
 4005 03b0 48        		.byte	72
 4006 03b1 44        		.byte	68
 4007 03b2 44        		.byte	68
 4008 03b3 38        		.byte	56
 4009 03b4 06        		.byte	6
 4010 03b5 38        		.byte	56
 4011 03b6 44        		.byte	68
 4012 03b7 44        		.byte	68
 4013 03b8 44        		.byte	68
 4014 03b9 20        		.byte	32
 4015 03ba 06        		.byte	6
 4016 03bb 38        		.byte	56
 4017 03bc 44        		.byte	68
 4018 03bd 44        		.byte	68
 4019 03be 48        		.byte	72
 4020 03bf 7F        		.byte	127
 4021 03c0 06        		.byte	6
 4022 03c1 38        		.byte	56
 4023 03c2 54        		.byte	84
 4024 03c3 54        		.byte	84
 4025 03c4 54        		.byte	84
 4026 03c5 18        		.byte	24
 4027 03c6 06        		.byte	6
 4028 03c7 08        		.byte	8
 4029 03c8 7E        		.byte	126
 4030 03c9 09        		.byte	9
 4031 03ca 01        		.byte	1
 4032 03cb 02        		.byte	2
 4033 03cc 06        		.byte	6
 4034 03cd 18        		.byte	24
 4035 03ce A4        		.byte	-92
 4036 03cf A4        		.byte	-92
 4037 03d0 A4        		.byte	-92
 4038 03d1 7C        		.byte	124
 4039 03d2 06        		.byte	6
 4040 03d3 7F        		.byte	127
 4041 03d4 08        		.byte	8
 4042 03d5 04        		.byte	4
 4043 03d6 04        		.byte	4
 4044 03d7 78        		.byte	120
 4045 03d8 06        		.byte	6
 4046 03d9 00        		.byte	0
 4047 03da 44        		.byte	68
 4048 03db 7D        		.byte	125
 4049 03dc 40        		.byte	64
 4050 03dd 00        		.byte	0
 4051 03de 06        		.byte	6
 4052 03df 40        		.byte	64
 4053 03e0 80        		.byte	-128
 4054 03e1 84        		.byte	-124
 4055 03e2 7D        		.byte	125
 4056 03e3 00        		.byte	0
 4057 03e4 06        		.byte	6
 4058 03e5 7F        		.byte	127
 4059 03e6 10        		.byte	16
 4060 03e7 28        		.byte	40
 4061 03e8 44        		.byte	68
 4062 03e9 00        		.byte	0
 4063 03ea 06        		.byte	6
 4064 03eb 00        		.byte	0
 4065 03ec 41        		.byte	65
 4066 03ed 7F        		.byte	127
 4067 03ee 40        		.byte	64
 4068 03ef 00        		.byte	0
 4069 03f0 06        		.byte	6
 4070 03f1 7C        		.byte	124
 4071 03f2 04        		.byte	4
 4072 03f3 18        		.byte	24
 4073 03f4 04        		.byte	4
 4074 03f5 78        		.byte	120
 4075 03f6 06        		.byte	6
 4076 03f7 7C        		.byte	124
 4077 03f8 08        		.byte	8
 4078 03f9 04        		.byte	4
 4079 03fa 04        		.byte	4
 4080 03fb 78        		.byte	120
 4081 03fc 06        		.byte	6
 4082 03fd 38        		.byte	56
 4083 03fe 44        		.byte	68
 4084 03ff 44        		.byte	68
 4085 0400 44        		.byte	68
 4086 0401 38        		.byte	56
 4087 0402 06        		.byte	6
 4088 0403 FC        		.byte	-4
 4089 0404 24        		.byte	36
 4090 0405 24        		.byte	36
 4091 0406 24        		.byte	36
 4092 0407 18        		.byte	24
 4093 0408 06        		.byte	6
 4094 0409 18        		.byte	24
 4095 040a 24        		.byte	36
 4096 040b 24        		.byte	36
 4097 040c 18        		.byte	24
 4098 040d FC        		.byte	-4
 4099 040e 06        		.byte	6
 4100 040f 7C        		.byte	124
 4101 0410 08        		.byte	8
 4102 0411 04        		.byte	4
 4103 0412 04        		.byte	4
 4104 0413 08        		.byte	8
 4105 0414 06        		.byte	6
 4106 0415 48        		.byte	72
 4107 0416 54        		.byte	84
 4108 0417 54        		.byte	84
 4109 0418 54        		.byte	84
 4110 0419 20        		.byte	32
 4111 041a 06        		.byte	6
 4112 041b 04        		.byte	4
 4113 041c 3F        		.byte	63
 4114 041d 44        		.byte	68
 4115 041e 40        		.byte	64
 4116 041f 20        		.byte	32
 4117 0420 06        		.byte	6
 4118 0421 3C        		.byte	60
 4119 0422 40        		.byte	64
 4120 0423 40        		.byte	64
 4121 0424 20        		.byte	32
 4122 0425 7C        		.byte	124
 4123 0426 06        		.byte	6
 4124 0427 1C        		.byte	28
 4125 0428 20        		.byte	32
 4126 0429 40        		.byte	64
 4127 042a 20        		.byte	32
 4128 042b 1C        		.byte	28
 4129 042c 06        		.byte	6
 4130 042d 3C        		.byte	60
 4131 042e 40        		.byte	64
 4132 042f 30        		.byte	48
 4133 0430 40        		.byte	64
 4134 0431 3C        		.byte	60
 4135 0432 06        		.byte	6
 4136 0433 44        		.byte	68
 4137 0434 28        		.byte	40
 4138 0435 10        		.byte	16
 4139 0436 28        		.byte	40
 4140 0437 44        		.byte	68
 4141 0438 06        		.byte	6
 4142 0439 1C        		.byte	28
 4143 043a A0        		.byte	-96
 4144 043b A0        		.byte	-96
 4145 043c A0        		.byte	-96
 4146 043d 7C        		.byte	124
 4147 043e 06        		.byte	6
 4148 043f 44        		.byte	68
 4149 0440 64        		.byte	100
 4150 0441 54        		.byte	84
 4151 0442 4C        		.byte	76
 4152 0443 44        		.byte	68
 4153               	.global	big_number
 4156               	big_number:
 4157 0444 00        		.byte	0
 4158 0445 80        		.byte	-128
 4159 0446 C0        		.byte	-64
 4160 0447 E0        		.byte	-32
 4161 0448 E0        		.byte	-32
 4162 0449 60        		.byte	96
 4163 044a E0        		.byte	-32
 4164 044b E0        		.byte	-32
 4165 044c C0        		.byte	-64
 4166 044d 80        		.byte	-128
 4167 044e 00        		.byte	0
 4168 044f 00        		.byte	0
 4169 0450 00        		.byte	0
 4170 0451 00        		.byte	0
 4171 0452 00        		.byte	0
 4172 0453 00        		.byte	0
 4173 0454 70        		.byte	112
 4174 0455 FF        		.byte	-1
 4175 0456 FF        		.byte	-1
 4176 0457 01        		.byte	1
 4177 0458 00        		.byte	0
 4178 0459 00        		.byte	0
 4179 045a 00        		.byte	0
 4180 045b 00        		.byte	0
 4181 045c FF        		.byte	-1
 4182 045d FF        		.byte	-1
 4183 045e FE        		.byte	-2
 4184 045f 00        		.byte	0
 4185 0460 00        		.byte	0
 4186 0461 00        		.byte	0
 4187 0462 00        		.byte	0
 4188 0463 00        		.byte	0
 4189 0464 00        		.byte	0
 4190 0465 0F        		.byte	15
 4191 0466 1F        		.byte	31
 4192 0467 3C        		.byte	60
 4193 0468 38        		.byte	56
 4194 0469 30        		.byte	48
 4195 046a 38        		.byte	56
 4196 046b 38        		.byte	56
 4197 046c 1F        		.byte	31
 4198 046d 0F        		.byte	15
 4199 046e 03        		.byte	3
 4200 046f 00        		.byte	0
 4201 0470 00        		.byte	0
 4202 0471 00        		.byte	0
 4203 0472 00        		.byte	0
 4204 0473 00        		.byte	0
 4205 0474 00        		.byte	0
 4206 0475 00        		.byte	0
 4207 0476 00        		.byte	0
 4208 0477 00        		.byte	0
 4209 0478 80        		.byte	-128
 4210 0479 E0        		.byte	-32
 4211 047a E0        		.byte	-32
 4212 047b 00        		.byte	0
 4213 047c 00        		.byte	0
 4214 047d 00        		.byte	0
 4215 047e 00        		.byte	0
 4216 047f 00        		.byte	0
 4217 0480 00        		.byte	0
 4218 0481 00        		.byte	0
 4219 0482 00        		.byte	0
 4220 0483 00        		.byte	0
 4221 0484 00        		.byte	0
 4222 0485 00        		.byte	0
 4223 0486 03        		.byte	3
 4224 0487 03        		.byte	3
 4225 0488 03        		.byte	3
 4226 0489 FF        		.byte	-1
 4227 048a FF        		.byte	-1
 4228 048b 00        		.byte	0
 4229 048c 00        		.byte	0
 4230 048d 00        		.byte	0
 4231 048e 00        		.byte	0
 4232 048f 00        		.byte	0
 4233 0490 00        		.byte	0
 4234 0491 00        		.byte	0
 4235 0492 00        		.byte	0
 4236 0493 00        		.byte	0
 4237 0494 00        		.byte	0
 4238 0495 00        		.byte	0
 4239 0496 38        		.byte	56
 4240 0497 38        		.byte	56
 4241 0498 38        		.byte	56
 4242 0499 3F        		.byte	63
 4243 049a 3F        		.byte	63
 4244 049b 38        		.byte	56
 4245 049c 38        		.byte	56
 4246 049d 38        		.byte	56
 4247 049e 00        		.byte	0
 4248 049f 00        		.byte	0
 4249 04a0 00        		.byte	0
 4250 04a1 00        		.byte	0
 4251 04a2 00        		.byte	0
 4252 04a3 00        		.byte	0
 4253 04a4 00        		.byte	0
 4254 04a5 C0        		.byte	-64
 4255 04a6 C0        		.byte	-64
 4256 04a7 E0        		.byte	-32
 4257 04a8 60        		.byte	96
 4258 04a9 60        		.byte	96
 4259 04aa E0        		.byte	-32
 4260 04ab E0        		.byte	-32
 4261 04ac C0        		.byte	-64
 4262 04ad 80        		.byte	-128
 4263 04ae 00        		.byte	0
 4264 04af 00        		.byte	0
 4265 04b0 00        		.byte	0
 4266 04b1 00        		.byte	0
 4267 04b2 00        		.byte	0
 4268 04b3 00        		.byte	0
 4269 04b4 00        		.byte	0
 4270 04b5 01        		.byte	1
 4271 04b6 00        		.byte	0
 4272 04b7 00        		.byte	0
 4273 04b8 80        		.byte	-128
 4274 04b9 C0        		.byte	-64
 4275 04ba E0        		.byte	-32
 4276 04bb F9        		.byte	-7
 4277 04bc 3F        		.byte	63
 4278 04bd 1F        		.byte	31
 4279 04be 00        		.byte	0
 4280 04bf 00        		.byte	0
 4281 04c0 00        		.byte	0
 4282 04c1 00        		.byte	0
 4283 04c2 00        		.byte	0
 4284 04c3 00        		.byte	0
 4285 04c4 00        		.byte	0
 4286 04c5 3C        		.byte	60
 4287 04c6 3E        		.byte	62
 4288 04c7 3F        		.byte	63
 4289 04c8 3F        		.byte	63
 4290 04c9 3B        		.byte	59
 4291 04ca 39        		.byte	57
 4292 04cb 38        		.byte	56
 4293 04cc 38        		.byte	56
 4294 04cd 38        		.byte	56
 4295 04ce 38        		.byte	56
 4296 04cf 00        		.byte	0
 4297 04d0 00        		.byte	0
 4298 04d1 00        		.byte	0
 4299 04d2 00        		.byte	0
 4300 04d3 00        		.byte	0
 4301 04d4 00        		.byte	0
 4302 04d5 C0        		.byte	-64
 4303 04d6 E0        		.byte	-32
 4304 04d7 E0        		.byte	-32
 4305 04d8 60        		.byte	96
 4306 04d9 60        		.byte	96
 4307 04da E0        		.byte	-32
 4308 04db E0        		.byte	-32
 4309 04dc C0        		.byte	-64
 4310 04dd C0        		.byte	-64
 4311 04de 00        		.byte	0
 4312 04df 00        		.byte	0
 4313 04e0 00        		.byte	0
 4314 04e1 00        		.byte	0
 4315 04e2 00        		.byte	0
 4316 04e3 00        		.byte	0
 4317 04e4 00        		.byte	0
 4318 04e5 01        		.byte	1
 4319 04e6 00        		.byte	0
 4320 04e7 00        		.byte	0
 4321 04e8 30        		.byte	48
 4322 04e9 30        		.byte	48
 4323 04ea 38        		.byte	56
 4324 04eb 7D        		.byte	125
 4325 04ec EF        		.byte	-17
 4326 04ed CF        		.byte	-49
 4327 04ee 00        		.byte	0
 4328 04ef 00        		.byte	0
 4329 04f0 00        		.byte	0
 4330 04f1 00        		.byte	0
 4331 04f2 00        		.byte	0
 4332 04f3 00        		.byte	0
 4333 04f4 00        		.byte	0
 4334 04f5 1C        		.byte	28
 4335 04f6 38        		.byte	56
 4336 04f7 38        		.byte	56
 4337 04f8 30        		.byte	48
 4338 04f9 30        		.byte	48
 4339 04fa 38        		.byte	56
 4340 04fb 3C        		.byte	60
 4341 04fc 1F        		.byte	31
 4342 04fd 0F        		.byte	15
 4343 04fe 01        		.byte	1
 4344 04ff 00        		.byte	0
 4345 0500 00        		.byte	0
 4346 0501 00        		.byte	0
 4347 0502 00        		.byte	0
 4348 0503 00        		.byte	0
 4349 0504 00        		.byte	0
 4350 0505 00        		.byte	0
 4351 0506 00        		.byte	0
 4352 0507 00        		.byte	0
 4353 0508 00        		.byte	0
 4354 0509 80        		.byte	-128
 4355 050a C0        		.byte	-64
 4356 050b E0        		.byte	-32
 4357 050c E0        		.byte	-32
 4358 050d 00        		.byte	0
 4359 050e 00        		.byte	0
 4360 050f 00        		.byte	0
 4361 0510 00        		.byte	0
 4362 0511 00        		.byte	0
 4363 0512 00        		.byte	0
 4364 0513 00        		.byte	0
 4365 0514 E0        		.byte	-32
 4366 0515 F0        		.byte	-16
 4367 0516 F8        		.byte	-8
 4368 0517 DE        		.byte	-34
 4369 0518 CF        		.byte	-49
 4370 0519 C7        		.byte	-57
 4371 051a C1        		.byte	-63
 4372 051b FF        		.byte	-1
 4373 051c FF        		.byte	-1
 4374 051d C0        		.byte	-64
 4375 051e C0        		.byte	-64
 4376 051f 00        		.byte	0
 4377 0520 00        		.byte	0
 4378 0521 00        		.byte	0
 4379 0522 00        		.byte	0
 4380 0523 00        		.byte	0
 4381 0524 00        		.byte	0
 4382 0525 00        		.byte	0
 4383 0526 00        		.byte	0
 4384 0527 00        		.byte	0
 4385 0528 00        		.byte	0
 4386 0529 00        		.byte	0
 4387 052a 00        		.byte	0
 4388 052b 3F        		.byte	63
 4389 052c 3F        		.byte	63
 4390 052d 00        		.byte	0
 4391 052e 00        		.byte	0
 4392 052f 00        		.byte	0
 4393 0530 00        		.byte	0
 4394 0531 00        		.byte	0
 4395 0532 00        		.byte	0
 4396 0533 00        		.byte	0
 4397 0534 00        		.byte	0
 4398 0535 E0        		.byte	-32
 4399 0536 E0        		.byte	-32
 4400 0537 E0        		.byte	-32
 4401 0538 E0        		.byte	-32
 4402 0539 E0        		.byte	-32
 4403 053a E0        		.byte	-32
 4404 053b E0        		.byte	-32
 4405 053c E0        		.byte	-32
 4406 053d E0        		.byte	-32
 4407 053e E0        		.byte	-32
 4408 053f 00        		.byte	0
 4409 0540 00        		.byte	0
 4410 0541 00        		.byte	0
 4411 0542 00        		.byte	0
 4412 0543 00        		.byte	0
 4413 0544 00        		.byte	0
 4414 0545 3F        		.byte	63
 4415 0546 3F        		.byte	63
 4416 0547 3F        		.byte	63
 4417 0548 38        		.byte	56
 4418 0549 38        		.byte	56
 4419 054a 30        		.byte	48
 4420 054b 70        		.byte	112
 4421 054c F0        		.byte	-16
 4422 054d E0        		.byte	-32
 4423 054e 00        		.byte	0
 4424 054f 00        		.byte	0
 4425 0550 00        		.byte	0
 4426 0551 00        		.byte	0
 4427 0552 00        		.byte	0
 4428 0553 00        		.byte	0
 4429 0554 00        		.byte	0
 4430 0555 1C        		.byte	28
 4431 0556 38        		.byte	56
 4432 0557 38        		.byte	56
 4433 0558 30        		.byte	48
 4434 0559 30        		.byte	48
 4435 055a 38        		.byte	56
 4436 055b 3C        		.byte	60
 4437 055c 1F        		.byte	31
 4438 055d 0F        		.byte	15
 4439 055e 01        		.byte	1
 4440 055f 00        		.byte	0
 4441 0560 00        		.byte	0
 4442 0561 00        		.byte	0
 4443 0562 00        		.byte	0
 4444 0563 00        		.byte	0
 4445 0564 00        		.byte	0
 4446 0565 00        		.byte	0
 4447 0566 80        		.byte	-128
 4448 0567 C0        		.byte	-64
 4449 0568 C0        		.byte	-64
 4450 0569 E0        		.byte	-32
 4451 056a 60        		.byte	96
 4452 056b 60        		.byte	96
 4453 056c E0        		.byte	-32
 4454 056d E0        		.byte	-32
 4455 056e 00        		.byte	0
 4456 056f 00        		.byte	0
 4457 0570 00        		.byte	0
 4458 0571 00        		.byte	0
 4459 0572 00        		.byte	0
 4460 0573 00        		.byte	0
 4461 0574 E0        		.byte	-32
 4462 0575 FE        		.byte	-2
 4463 0576 FF        		.byte	-1
 4464 0577 37        		.byte	55
 4465 0578 39        		.byte	57
 4466 0579 18        		.byte	24
 4467 057a 18        		.byte	24
 4468 057b 38        		.byte	56
 4469 057c F0        		.byte	-16
 4470 057d F0        		.byte	-16
 4471 057e C0        		.byte	-64
 4472 057f 00        		.byte	0
 4473 0580 00        		.byte	0
 4474 0581 00        		.byte	0
 4475 0582 00        		.byte	0
 4476 0583 00        		.byte	0
 4477 0584 00        		.byte	0
 4478 0585 0F        		.byte	15
 4479 0586 1F        		.byte	31
 4480 0587 1C        		.byte	28
 4481 0588 38        		.byte	56
 4482 0589 30        		.byte	48
 4483 058a 30        		.byte	48
 4484 058b 38        		.byte	56
 4485 058c 1F        		.byte	31
 4486 058d 0F        		.byte	15
 4487 058e 07        		.byte	7
 4488 058f 00        		.byte	0
 4489 0590 00        		.byte	0
 4490 0591 00        		.byte	0
 4491 0592 00        		.byte	0
 4492 0593 00        		.byte	0
 4493 0594 00        		.byte	0
 4494 0595 E0        		.byte	-32
 4495 0596 E0        		.byte	-32
 4496 0597 E0        		.byte	-32
 4497 0598 E0        		.byte	-32
 4498 0599 E0        		.byte	-32
 4499 059a E0        		.byte	-32
 4500 059b E0        		.byte	-32
 4501 059c E0        		.byte	-32
 4502 059d E0        		.byte	-32
 4503 059e E0        		.byte	-32
 4504 059f 00        		.byte	0
 4505 05a0 00        		.byte	0
 4506 05a1 00        		.byte	0
 4507 05a2 00        		.byte	0
 4508 05a3 00        		.byte	0
 4509 05a4 00        		.byte	0
 4510 05a5 00        		.byte	0
 4511 05a6 00        		.byte	0
 4512 05a7 00        		.byte	0
 4513 05a8 80        		.byte	-128
 4514 05a9 E0        		.byte	-32
 4515 05aa F8        		.byte	-8
 4516 05ab 7E        		.byte	126
 4517 05ac 1F        		.byte	31
 4518 05ad 07        		.byte	7
 4519 05ae 01        		.byte	1
 4520 05af 00        		.byte	0
 4521 05b0 00        		.byte	0
 4522 05b1 00        		.byte	0
 4523 05b2 00        		.byte	0
 4524 05b3 00        		.byte	0
 4525 05b4 00        		.byte	0
 4526 05b5 00        		.byte	0
 4527 05b6 38        		.byte	56
 4528 05b7 3E        		.byte	62
 4529 05b8 1F        		.byte	31
 4530 05b9 07        		.byte	7
 4531 05ba 01        		.byte	1
 4532 05bb 00        		.byte	0
 4533 05bc 00        		.byte	0
 4534 05bd 00        		.byte	0
 4535 05be 00        		.byte	0
 4536 05bf 00        		.byte	0
 4537 05c0 00        		.byte	0
 4538 05c1 00        		.byte	0
 4539 05c2 00        		.byte	0
 4540 05c3 00        		.byte	0
 4541 05c4 00        		.byte	0
 4542 05c5 80        		.byte	-128
 4543 05c6 C0        		.byte	-64
 4544 05c7 E0        		.byte	-32
 4545 05c8 E0        		.byte	-32
 4546 05c9 60        		.byte	96
 4547 05ca 60        		.byte	96
 4548 05cb E0        		.byte	-32
 4549 05cc C0        		.byte	-64
 4550 05cd C0        		.byte	-64
 4551 05ce 00        		.byte	0
 4552 05cf 00        		.byte	0
 4553 05d0 00        		.byte	0
 4554 05d1 00        		.byte	0
 4555 05d2 00        		.byte	0
 4556 05d3 00        		.byte	0
 4557 05d4 00        		.byte	0
 4558 05d5 CF        		.byte	-49
 4559 05d6 FF        		.byte	-1
 4560 05d7 7F        		.byte	127
 4561 05d8 38        		.byte	56
 4562 05d9 30        		.byte	48
 4563 05da 70        		.byte	112
 4564 05db 70        		.byte	112
 4565 05dc FF        		.byte	-1
 4566 05dd EF        		.byte	-17
 4567 05de C7        		.byte	-57
 4568 05df 00        		.byte	0
 4569 05e0 00        		.byte	0
 4570 05e1 00        		.byte	0
 4571 05e2 00        		.byte	0
 4572 05e3 00        		.byte	0
 4573 05e4 03        		.byte	3
 4574 05e5 0F        		.byte	15
 4575 05e6 1F        		.byte	31
 4576 05e7 3C        		.byte	60
 4577 05e8 38        		.byte	56
 4578 05e9 30        		.byte	48
 4579 05ea 30        		.byte	48
 4580 05eb 38        		.byte	56
 4581 05ec 1F        		.byte	31
 4582 05ed 1F        		.byte	31
 4583 05ee 0F        		.byte	15
 4584 05ef 00        		.byte	0
 4585 05f0 00        		.byte	0
 4586 05f1 00        		.byte	0
 4587 05f2 00        		.byte	0
 4588 05f3 00        		.byte	0
 4589 05f4 00        		.byte	0
 4590 05f5 80        		.byte	-128
 4591 05f6 C0        		.byte	-64
 4592 05f7 E0        		.byte	-32
 4593 05f8 E0        		.byte	-32
 4594 05f9 60        		.byte	96
 4595 05fa E0        		.byte	-32
 4596 05fb E0        		.byte	-32
 4597 05fc C0        		.byte	-64
 4598 05fd 80        		.byte	-128
 4599 05fe 00        		.byte	0
 4600 05ff 00        		.byte	0
 4601 0600 00        		.byte	0
 4602 0601 00        		.byte	0
 4603 0602 00        		.byte	0
 4604 0603 00        		.byte	0
 4605 0604 0C        		.byte	12
 4606 0605 3F        		.byte	63
 4607 0606 7F        		.byte	127
 4608 0607 F1        		.byte	-15
 4609 0608 E0        		.byte	-32
 4610 0609 C0        		.byte	-64
 4611 060a C0        		.byte	-64
 4612 060b E1        		.byte	-31
 4613 060c FF        		.byte	-1
 4614 060d FF        		.byte	-1
 4615 060e FE        		.byte	-2
 4616 060f 00        		.byte	0
 4617 0610 00        		.byte	0
 4618 0611 00        		.byte	0
 4619 0612 00        		.byte	0
 4620 0613 00        		.byte	0
 4621 0614 00        		.byte	0
 4622 0615 00        		.byte	0
 4623 0616 38        		.byte	56
 4624 0617 30        		.byte	48
 4625 0618 30        		.byte	48
 4626 0619 38        		.byte	56
 4627 061a 38        		.byte	56
 4628 061b 1E        		.byte	30
 4629 061c 0F        		.byte	15
 4630 061d 07        		.byte	7
 4631 061e 00        		.byte	0
 4632 061f 00        		.byte	0
 4633 0620 00        		.byte	0
 4634 0621 00        		.byte	0
 4635 0622 00        		.byte	0
 4636 0623 00        		.byte	0
 4637 0624 00        		.byte	0
 4638 0625 00        		.byte	0
 4639 0626 00        		.byte	0
 4640 0627 00        		.byte	0
 4641 0628 00        		.byte	0
 4642 0629 00        		.byte	0
 4643 062a 00        		.byte	0
 4644 062b 00        		.byte	0
 4645 062c 00        		.byte	0
 4646 062d 00        		.byte	0
 4647 062e 00        		.byte	0
 4648 062f 00        		.byte	0
 4649 0630 00        		.byte	0
 4650 0631 00        		.byte	0
 4651 0632 00        		.byte	0
 4652 0633 00        		.byte	0
 4653 0634 00        		.byte	0
 4654 0635 00        		.byte	0
 4655 0636 00        		.byte	0
 4656 0637 00        		.byte	0
 4657 0638 00        		.byte	0
 4658 0639 00        		.byte	0
 4659 063a 00        		.byte	0
 4660 063b 00        		.byte	0
 4661 063c 00        		.byte	0
 4662 063d 00        		.byte	0
 4663 063e 00        		.byte	0
 4664 063f 00        		.byte	0
 4665 0640 00        		.byte	0
 4666 0641 00        		.byte	0
 4667 0642 00        		.byte	0
 4668 0643 00        		.byte	0
 4669 0644 3C        		.byte	60
 4670 0645 3C        		.byte	60
 4671 0646 3C        		.byte	60
 4672 0647 00        		.byte	0
 4673 0648 00        		.byte	0
 4674 0649 00        		.byte	0
 4675 064a 00        		.byte	0
 4676 064b 00        		.byte	0
 4677 064c 00        		.byte	0
 4678 064d 00        		.byte	0
 4679 064e 00        		.byte	0
 4680 064f 00        		.byte	0
 4681 0650 00        		.byte	0
 4682 0651 00        		.byte	0
 4683 0652 00        		.byte	0
 4684 0653 00        		.byte	0
 4685 0654 00        		.byte	0
 4686 0655 00        		.byte	0
 4687 0656 00        		.byte	0
 4688 0657 00        		.byte	0
 4689 0658 00        		.byte	0
 4690 0659 00        		.byte	0
 4691 065a 00        		.byte	0
 4692 065b 00        		.byte	0
 4693 065c 00        		.byte	0
 4694 065d 00        		.byte	0
 4695 065e 00        		.byte	0
 4696 065f 00        		.byte	0
 4697 0660 00        		.byte	0
 4698 0661 00        		.byte	0
 4699 0662 00        		.byte	0
 4700 0663 00        		.byte	0
 4701 0664 00        		.byte	0
 4702 0665 00        		.byte	0
 4703 0666 40        		.byte	64
 4704 0667 40        		.byte	64
 4705 0668 40        		.byte	64
 4706 0669 40        		.byte	64
 4707 066a 40        		.byte	64
 4708 066b FE        		.byte	-2
 4709 066c FE        		.byte	-2
 4710 066d 40        		.byte	64
 4711 066e 40        		.byte	64
 4712 066f 40        		.byte	64
 4713 0670 40        		.byte	64
 4714 0671 40        		.byte	64
 4715 0672 00        		.byte	0
 4716 0673 00        		.byte	0
 4717 0674 00        		.byte	0
 4718 0675 00        		.byte	0
 4719 0676 00        		.byte	0
 4720 0677 00        		.byte	0
 4721 0678 00        		.byte	0
 4722 0679 00        		.byte	0
 4723 067a 00        		.byte	0
 4724 067b 0F        		.byte	15
 4725 067c 0F        		.byte	15
 4726 067d 00        		.byte	0
 4727 067e 00        		.byte	0
 4728 067f 00        		.byte	0
 4729 0680 00        		.byte	0
 4730 0681 00        		.byte	0
 4731 0682 00        		.byte	0
 4732 0683 00        		.byte	0
 4733 0684 00        		.byte	0
 4734 0685 00        		.byte	0
 4735 0686 00        		.byte	0
 4736 0687 00        		.byte	0
 4737 0688 00        		.byte	0
 4738 0689 00        		.byte	0
 4739 068a 00        		.byte	0
 4740 068b 00        		.byte	0
 4741 068c 00        		.byte	0
 4742 068d 00        		.byte	0
 4743 068e 00        		.byte	0
 4744 068f 00        		.byte	0
 4745 0690 00        		.byte	0
 4746 0691 00        		.byte	0
 4747 0692 00        		.byte	0
 4748 0693 00        		.byte	0
 4749 0694 00        		.byte	0
 4750 0695 40        		.byte	64
 4751 0696 40        		.byte	64
 4752 0697 40        		.byte	64
 4753 0698 40        		.byte	64
 4754 0699 40        		.byte	64
 4755 069a 40        		.byte	64
 4756 069b 00        		.byte	0
 4757 069c 00        		.byte	0
 4758 069d 00        		.byte	0
 4759 069e 00        		.byte	0
 4760 069f 00        		.byte	0
 4761 06a0 00        		.byte	0
 4762 06a1 00        		.byte	0
 4763 06a2 00        		.byte	0
 4764 06a3 00        		.byte	0
 4765 06a4 00        		.byte	0
 4766 06a5 00        		.byte	0
 4767 06a6 00        		.byte	0
 4768 06a7 00        		.byte	0
 4769 06a8 00        		.byte	0
 4770 06a9 00        		.byte	0
 4771 06aa 00        		.byte	0
 4772 06ab 00        		.byte	0
 4773 06ac 00        		.byte	0
 4774 06ad 00        		.byte	0
 4775 06ae 00        		.byte	0
 4776 06af 00        		.byte	0
 4777 06b0 00        		.byte	0
 4778 06b1 00        		.byte	0
 4779 06b2 00        		.byte	0
 4780 06b3 00        		.byte	0
 4781               	.global	font4_5
 4784               	font4_5:
 4785 06b4 04        		.byte	4
 4786 06b5 1E        		.byte	30
 4787 06b6 05        		.byte	5
 4788 06b7 05        		.byte	5
 4789 06b8 1E        		.byte	30
 4790 06b9 00        		.byte	0
 4791 06ba 04        		.byte	4
 4792 06bb 1F        		.byte	31
 4793 06bc 15        		.byte	21
 4794 06bd 15        		.byte	21
 4795 06be 0A        		.byte	10
 4796 06bf 00        		.byte	0
 4797 06c0 04        		.byte	4
 4798 06c1 0E        		.byte	14
 4799 06c2 11        		.byte	17
 4800 06c3 11        		.byte	17
 4801 06c4 11        		.byte	17
 4802 06c5 00        		.byte	0
 4803 06c6 04        		.byte	4
 4804 06c7 1F        		.byte	31
 4805 06c8 11        		.byte	17
 4806 06c9 11        		.byte	17
 4807 06ca 0E        		.byte	14
 4808 06cb 00        		.byte	0
 4809 06cc 04        		.byte	4
 4810 06cd 1F        		.byte	31
 4811 06ce 15        		.byte	21
 4812 06cf 15        		.byte	21
 4813 06d0 11        		.byte	17
 4814 06d1 00        		.byte	0
 4815 06d2 04        		.byte	4
 4816 06d3 1F        		.byte	31
 4817 06d4 05        		.byte	5
 4818 06d5 05        		.byte	5
 4819 06d6 01        		.byte	1
 4820 06d7 00        		.byte	0
 4821 06d8 04        		.byte	4
 4822 06d9 0E        		.byte	14
 4823 06da 11        		.byte	17
 4824 06db 15        		.byte	21
 4825 06dc 1D        		.byte	29
 4826 06dd 00        		.byte	0
 4827 06de 04        		.byte	4
 4828 06df 1F        		.byte	31
 4829 06e0 04        		.byte	4
 4830 06e1 04        		.byte	4
 4831 06e2 1F        		.byte	31
 4832 06e3 00        		.byte	0
 4833 06e4 03        		.byte	3
 4834 06e5 11        		.byte	17
 4835 06e6 1F        		.byte	31
 4836 06e7 11        		.byte	17
 4837 06e8 00        		.byte	0
 4838 06e9 00        		.byte	0
 4839 06ea 04        		.byte	4
 4840 06eb 08        		.byte	8
 4841 06ec 11        		.byte	17
 4842 06ed 0F        		.byte	15
 4843 06ee 01        		.byte	1
 4844 06ef 00        		.byte	0
 4845 06f0 04        		.byte	4
 4846 06f1 1F        		.byte	31
 4847 06f2 04        		.byte	4
 4848 06f3 0A        		.byte	10
 4849 06f4 11        		.byte	17
 4850 06f5 00        		.byte	0
 4851 06f6 04        		.byte	4
 4852 06f7 1F        		.byte	31
 4853 06f8 10        		.byte	16
 4854 06f9 10        		.byte	16
 4855 06fa 10        		.byte	16
 4856 06fb 00        		.byte	0
 4857 06fc 05        		.byte	5
 4858 06fd 1F        		.byte	31
 4859 06fe 02        		.byte	2
 4860 06ff 04        		.byte	4
 4861 0700 02        		.byte	2
 4862 0701 1F        		.byte	31
 4863 0702 04        		.byte	4
 4864 0703 1F        		.byte	31
 4865 0704 02        		.byte	2
 4866 0705 04        		.byte	4
 4867 0706 1F        		.byte	31
 4868 0707 00        		.byte	0
 4869 0708 04        		.byte	4
 4870 0709 0E        		.byte	14
 4871 070a 11        		.byte	17
 4872 070b 11        		.byte	17
 4873 070c 0E        		.byte	14
 4874 070d 00        		.byte	0
 4875 070e 04        		.byte	4
 4876 070f 1F        		.byte	31
 4877 0710 09        		.byte	9
 4878 0711 09        		.byte	9
 4879 0712 06        		.byte	6
 4880 0713 00        		.byte	0
 4881 0714 04        		.byte	4
 4882 0715 0E        		.byte	14
 4883 0716 11        		.byte	17
 4884 0717 19        		.byte	25
 4885 0718 1E        		.byte	30
 4886 0719 00        		.byte	0
 4887 071a 04        		.byte	4
 4888 071b 1F        		.byte	31
 4889 071c 09        		.byte	9
 4890 071d 09        		.byte	9
 4891 071e 16        		.byte	22
 4892 071f 00        		.byte	0
 4893 0720 04        		.byte	4
 4894 0721 12        		.byte	18
 4895 0722 15        		.byte	21
 4896 0723 15        		.byte	21
 4897 0724 09        		.byte	9
 4898 0725 00        		.byte	0
 4899 0726 03        		.byte	3
 4900 0727 01        		.byte	1
 4901 0728 1F        		.byte	31
 4902 0729 01        		.byte	1
 4903 072a 00        		.byte	0
 4904 072b 00        		.byte	0
 4905 072c 04        		.byte	4
 4906 072d 0F        		.byte	15
 4907 072e 10        		.byte	16
 4908 072f 10        		.byte	16
 4909 0730 0F        		.byte	15
 4910 0731 00        		.byte	0
 4911 0732 03        		.byte	3
 4912 0733 0F        		.byte	15
 4913 0734 10        		.byte	16
 4914 0735 0F        		.byte	15
 4915 0736 00        		.byte	0
 4916 0737 00        		.byte	0
 4917 0738 05        		.byte	5
 4918 0739 1F        		.byte	31
 4919 073a 08        		.byte	8
 4920 073b 04        		.byte	4
 4921 073c 08        		.byte	8
 4922 073d 1F        		.byte	31
 4923 073e 04        		.byte	4
 4924 073f 1B        		.byte	27
 4925 0740 04        		.byte	4
 4926 0741 04        		.byte	4
 4927 0742 1B        		.byte	27
 4928 0743 00        		.byte	0
 4929 0744 03        		.byte	3
 4930 0745 03        		.byte	3
 4931 0746 1C        		.byte	28
 4932 0747 03        		.byte	3
 4933 0748 00        		.byte	0
 4934 0749 00        		.byte	0
 4935 074a 04        		.byte	4
 4936 074b 19        		.byte	25
 4937 074c 15        		.byte	21
 4938 074d 15        		.byte	21
 4939 074e 13        		.byte	19
 4940 074f 00        		.skip 1,0
 5229               	.Letext0:
DEFINED SYMBOLS
                            *ABS*:00000000 Nokia_BW_LCD.cpp
/var/folders/z6/vpmk4_yd42j_9xbv3n5kw3wc0000gn/T//ccgpZgVR.s:2      *ABS*:0000003f __SREG__
/var/folders/z6/vpmk4_yd42j_9xbv3n5kw3wc0000gn/T//ccgpZgVR.s:3      *ABS*:0000003e __SP_H__
/var/folders/z6/vpmk4_yd42j_9xbv3n5kw3wc0000gn/T//ccgpZgVR.s:4      *ABS*:0000003d __SP_L__
/var/folders/z6/vpmk4_yd42j_9xbv3n5kw3wc0000gn/T//ccgpZgVR.s:5      *ABS*:00000034 __CCP__
/var/folders/z6/vpmk4_yd42j_9xbv3n5kw3wc0000gn/T//ccgpZgVR.s:6      *ABS*:00000000 __tmp_reg__
/var/folders/z6/vpmk4_yd42j_9xbv3n5kw3wc0000gn/T//ccgpZgVR.s:7      *ABS*:00000001 __zero_reg__
/var/folders/z6/vpmk4_yd42j_9xbv3n5kw3wc0000gn/T//ccgpZgVR.s:18     .text:00000000 _ZN3LCDC2Ev
/var/folders/z6/vpmk4_yd42j_9xbv3n5kw3wc0000gn/T//ccgpZgVR.s:31     .text:00000002 _ZN3LCDC1Ev
/var/folders/z6/vpmk4_yd42j_9xbv3n5kw3wc0000gn/T//ccgpZgVR.s:44     .text:00000004 _ZN3LCD8setPixelEhh
/var/folders/z6/vpmk4_yd42j_9xbv3n5kw3wc0000gn/T//ccgpZgVR.s:100    .text:00000052 _ZN3LCD10clearPixelEhh
/var/folders/z6/vpmk4_yd42j_9xbv3n5kw3wc0000gn/T//ccgpZgVR.s:157    .text:000000a2 _ZN3LCD8xorPixelEhh
/var/folders/z6/vpmk4_yd42j_9xbv3n5kw3wc0000gn/T//ccgpZgVR.s:224    .text:000000fa _ZN3LCD8getPixelEhh
/var/folders/z6/vpmk4_yd42j_9xbv3n5kw3wc0000gn/T//ccgpZgVR.s:271    .text:00000136 _ZN3LCD17measureStringTinyEPc
/var/folders/z6/vpmk4_yd42j_9xbv3n5kw3wc0000gn/T//ccgpZgVR.s:4784   .progmem.data:000006b4 font4_5
/var/folders/z6/vpmk4_yd42j_9xbv3n5kw3wc0000gn/T//ccgpZgVR.s:340    .text:0000016c _ZN3LCD13writeCharTinyEhhh
/var/folders/z6/vpmk4_yd42j_9xbv3n5kw3wc0000gn/T//ccgpZgVR.s:493    .text:0000021c _ZN3LCD15writeStringTinyEhhPc
/var/folders/z6/vpmk4_yd42j_9xbv3n5kw3wc0000gn/T//ccgpZgVR.s:544    .text:00000256 _ZN3LCD9writeCharEhhh
/var/folders/z6/vpmk4_yd42j_9xbv3n5kw3wc0000gn/T//ccgpZgVR.s:3056   .progmem.data:00000000 font6_8
/var/folders/z6/vpmk4_yd42j_9xbv3n5kw3wc0000gn/T//ccgpZgVR.s:660    .text:000002e8 _ZN3LCD9writeUintEhhj
/var/folders/z6/vpmk4_yd42j_9xbv3n5kw3wc0000gn/T//ccgpZgVR.s:753    .text:00000370 _ZN3LCD11writeStringEhhPc
/var/folders/z6/vpmk4_yd42j_9xbv3n5kw3wc0000gn/T//ccgpZgVR.s:804    .text:000003a8 _ZN3LCD12writeCharBigEhhh
/var/folders/z6/vpmk4_yd42j_9xbv3n5kw3wc0000gn/T//ccgpZgVR.s:4156   .progmem.data:00000444 big_number
/var/folders/z6/vpmk4_yd42j_9xbv3n5kw3wc0000gn/T//ccgpZgVR.s:983    .text:00000498 _ZN3LCD14writeStringBigEhhPc
/var/folders/z6/vpmk4_yd42j_9xbv3n5kw3wc0000gn/T//ccgpZgVR.s:1034   .text:000004d0 _ZN3LCD5pixelEhhc
/var/folders/z6/vpmk4_yd42j_9xbv3n5kw3wc0000gn/T//ccgpZgVR.s:1060   .text:000004e4 _ZN3LCD8drawLineEhhhh
/var/folders/z6/vpmk4_yd42j_9xbv3n5kw3wc0000gn/T//ccgpZgVR.s:1206   .text:00000584 _ZN3LCD7drawBoxEhhhh
/var/folders/z6/vpmk4_yd42j_9xbv3n5kw3wc0000gn/T//ccgpZgVR.s:1269   .text:000005d8 _ZN3LCD3sgnEc
/var/folders/z6/vpmk4_yd42j_9xbv3n5kw3wc0000gn/T//ccgpZgVR.s:1289   .text:000005e0 _ZN3LCD13drawHighlightEhhhh
/var/folders/z6/vpmk4_yd42j_9xbv3n5kw3wc0000gn/T//ccgpZgVR.s:1356   .text:00000624 _ZN3LCD8eraseBoxEhhhh
/var/folders/z6/vpmk4_yd42j_9xbv3n5kw3wc0000gn/T//ccgpZgVR.s:1423   .text:00000668 _ZN3LCD11writeNumberEhhjhh
/var/folders/z6/vpmk4_yd42j_9xbv3n5kw3wc0000gn/T//ccgpZgVR.s:1944   .text:00000992 _ZN3LCD7drawBMPEhhPh
/var/folders/z6/vpmk4_yd42j_9xbv3n5kw3wc0000gn/T//ccgpZgVR.s:2239   .text:00000afc _ZN3LCD10drawCircleEhhh
/var/folders/z6/vpmk4_yd42j_9xbv3n5kw3wc0000gn/T//ccgpZgVR.s:2387   .text:00000bf2 _ZN3LCD8swapBitsEh
/var/folders/z6/vpmk4_yd42j_9xbv3n5kw3wc0000gn/T//ccgpZgVR.s:2475   .text:00000c7a _ZN3LCD3clsEv
/var/folders/z6/vpmk4_yd42j_9xbv3n5kw3wc0000gn/T//ccgpZgVR.s:2514   .text:00000ca0 _ZN3LCD9writeByteEhh
/var/folders/z6/vpmk4_yd42j_9xbv3n5kw3wc0000gn/T//ccgpZgVR.s:2548   .text:00000cb8 _ZN3LCD5setXYEhh
/var/folders/z6/vpmk4_yd42j_9xbv3n5kw3wc0000gn/T//ccgpZgVR.s:2586   .text:00000ce0 _ZN3LCD6updateEv
/var/folders/z6/vpmk4_yd42j_9xbv3n5kw3wc0000gn/T//ccgpZgVR.s:2660   .text:00000d4a _ZN3LCD5clearEv
/var/folders/z6/vpmk4_yd42j_9xbv3n5kw3wc0000gn/T//ccgpZgVR.s:2711   .text:00000d88 _ZN3LCD3offEv
/var/folders/z6/vpmk4_yd42j_9xbv3n5kw3wc0000gn/T//ccgpZgVR.s:2740   .text:00000d9a _ZN3LCD5colorEh
/var/folders/z6/vpmk4_yd42j_9xbv3n5kw3wc0000gn/T//ccgpZgVR.s:2774   .text:00000db6 _ZN3LCD9backlightEh
/var/folders/z6/vpmk4_yd42j_9xbv3n5kw3wc0000gn/T//ccgpZgVR.s:2906   .text:00000df6 _ZN3LCD4initEv
/var/folders/z6/vpmk4_yd42j_9xbv3n5kw3wc0000gn/T//ccgpZgVR.s:3035   .text:00000e80 _ZN3LCD12getBacklightEv
/var/folders/z6/vpmk4_yd42j_9xbv3n5kw3wc0000gn/T//ccgpZgVR.s:3612   .progmem.data:00000228 small_font

UNDEFINED SYMBOLS
__udivmodhi4
__mulsi3
